(dp1
Vloans
p2
(lp3
(dp4
VopenRv24m
p5
I3
sVaccOpenPast24Mths
p6
I3
sVmthsSinceLastDelinq
p7
NsVdtiJoint
p8
NsVinqFi
p9
I0
sVnumSats
p10
I21
sVmthsSinceRecentBc
p11
I8
sVdesc
p12
NsVbcUtil
p13
F84
sVtotCollAmt
p14
I0
sVreviewStatus
p15
VAPPROVED
p16
sVisIncV
p17
VSOURCE_VERIFIED
p18
sVnumTlOpPast12m
p19
I1
sVtotalRevHiLim
p20
I36200
sVopenAcc6m
p21
I0
sVterm
p22
I36
sViLUtil
p23
F121.3
sVinstallment
p24
F184.77000000000001
sVmthsSinceRecentRevolDelinq
p25
NsVmaxBalBc
p26
F7708
sVrevolBal
p27
F29728
sVilsExpD
p28
V2016-09-07T18:00:00.000-07:00
p29
sVpubRec
p30
I0
sVdelinq2Yrs
p31
I0
sVinqLast6Mths
p32
I0
sVisIncVJoint
p33
NsVloanAmount
p34
F5500
sVopenIl24m
p35
I0
sVnumOpRevTl
p36
I11
sVficoRangeHigh
p37
I674
sVpubRecBankruptcies
p38
I0
sVmthsSinceRcntIl
p39
I74
sVnumActvRevTl
p40
I8
sVficoRangeLow
p41
I670
sVacceptD
p42
V2016-09-02T11:11:55.000-07:00
p43
sVinqLast12m
p44
I1
sVmthsSinceRecentBcDlq
p45
NsVrevolUtil
p46
F82.099999999999994
sVnumIlTl
p47
I11
sVnumRevTlBalGt0
p48
I8
sVapplicationType
p49
VINDIVIDUAL
p50
sVnumTl90gDpd24m
p51
I0
sVexpDefaultRate
p52
F5.4699999999999998
sVcreditPullD
p53
V2016-09-02T11:09:42.000-07:00
p54
sVinitialListStatus
p55
VF
sVmoSinOldIlAcct
p56
I167
sVgrade
p57
VC
sVnumBcTl
p58
I10
sVinvestorCount
p59
NsVopenRv12m
p60
I1
sVtotHiCredLim
p61
I139043
sVreviewStatusD
p62
V2016-09-07T10:02:51.000-07:00
p63
sVdelinqAmnt
p64
F0
sVmoSinOldRevTlOp
p65
I205
sVnumRevAccts
p66
I19
sVsubGrade
p67
VC1
p68
sVopenIl12m
p69
I0
sVtotalAcc
p70
I31
sVmortAcc
p71
I0
sVmthsSinceRecentInq
p72
I8
sVannualIncJoint
p73
NsVhomeOwnership
p74
VRENT
p75
sVmoSinRcntRevTlOp
p76
I8
sVallUtil
p77
F111.09999999999999
sVtotCurBal
p78
I154458
sVearliestCrLine
p79
V1999-08-01T17:00:00.000-07:00
p80
sVopenIl6m
p81
I9
sVcollections12MthsExMed
p82
I0
sVexpD
p83
V2016-10-07T18:00:00.000-07:00
p84
sVdti
p85
F24.460000000000001
sVnumActvBcTl
p86
I6
sVannualInc
p87
F84445
sVlistD
p88
V2016-09-07T18:00:00.000-07:00
p89
sVfundedAmount
p90
F5475
sVempLength
p91
I96
sVpctTlNvrDlq
p92
I100
sVtotalBcLimit
p93
I32900
sVaccNowDelinq
p94
I0
sVaddrState
p95
VNY
p96
sVid
p97
I88806033
sVnumTl30dpd
p98
I0
sVserviceFeeRate
p99
F0.95999999999999996
sVaddrZip
p100
V113xx
p101
sVtotalBalIl
p102
F124730
sVpercentBcGt75
p103
F83.299999999999997
sVnumBcSats
p104
I6
sVopenAcc
p105
I21
sVnumAcctsEver120Ppd
p106
I0
sVempTitle
p107
VCriminalist III
p108
sVpurpose
p109
Vdebt_consolidation
p110
sVbcOpenToBuy
p111
I5267
sVnumTl120dpd2m
p112
I0
sVtaxLiens
p113
I0
sVmthsSinceLastRecord
p114
NsVtotalBalExMort
p115
I154458
sVmemberId
p116
I95148885
sVavgCurBal
p117
I9086
sVtotalCuTl
p118
I0
sVmoSinRcntTl
p119
I8
sVmthsSinceLastMajorDerog
p120
NsVtotalIlHighCreditLimit
p121
I102843
sVintRate
p122
F12.789999999999999
sVchargeoffWithin12Mths
p123
I0
sa(dp124
VopenRv24m
p125
I2
sVaccOpenPast24Mths
p126
I3
sVmthsSinceLastDelinq
p127
I12
sVdtiJoint
p128
NsVinqFi
p129
I0
sVnumSats
p130
I10
sVmthsSinceRecentBc
p131
I5
sVdesc
p132
NsVbcUtil
p133
F99.599999999999994
sVtotCollAmt
p134
I0
sVreviewStatus
p135
VAPPROVED
p136
sVisIncV
p137
VVERIFIED
p138
sVnumTlOpPast12m
p139
I3
sVtotalRevHiLim
p140
I8800
sVopenAcc6m
p141
I2
sVterm
p142
I36
sViLUtil
p143
F65.5
sVinstallment
p144
F102.52
sVmthsSinceRecentRevolDelinq
p145
I68
sVmaxBalBc
p146
F2172
sVrevolBal
p147
F8005
sVilsExpD
p148
V2016-09-07T18:00:00.000-07:00
p149
sVpubRec
p150
I0
sVdelinq2Yrs
p151
I1
sVinqLast6Mths
p152
I1
sVisIncVJoint
p153
NsVloanAmount
p154
F3000
sVopenIl24m
p155
I1
sVnumOpRevTl
p156
I6
sVficoRangeHigh
p157
I669
sVpubRecBankruptcies
p158
I0
sVmthsSinceRcntIl
p159
I10
sVnumActvRevTl
p160
I6
sVficoRangeLow
p161
I665
sVacceptD
p162
V2016-09-02T10:26:09.000-07:00
p163
sVinqLast12m
p164
I1
sVmthsSinceRecentBcDlq
p165
I68
sVrevolUtil
p166
F91
sVnumIlTl
p167
I7
sVnumRevTlBalGt0
p168
I6
sVapplicationType
p169
VINDIVIDUAL
p170
sVnumTl90gDpd24m
p171
I1
sVexpDefaultRate
p172
F6.2999999999999998
sVcreditPullD
p173
V2016-09-02T10:25:25.000-07:00
p174
sVinitialListStatus
p175
VF
sVmoSinOldIlAcct
p176
I111
sVgrade
p177
VC
sVnumBcTl
p178
I5
sVinvestorCount
p179
NsVopenRv12m
p180
I2
sVtotHiCredLim
p181
I286445
sVreviewStatusD
p182
V2016-09-07T10:01:38.000-07:00
p183
sVdelinqAmnt
p184
F0
sVmoSinOldRevTlOp
p185
I247
sVnumRevAccts
p186
I11
sVsubGrade
p187
VC3
p188
sVopenIl12m
p189
I1
sVtotalAcc
p190
I21
sVmortAcc
p191
I3
sVmthsSinceRecentInq
p192
I5
sVannualIncJoint
p193
NsVhomeOwnership
p194
VOWN
p195
sVmoSinRcntRevTlOp
p196
I5
sVallUtil
p197
F69.900000000000006
sVtotCurBal
p198
I256595
sVearliestCrLine
p199
V1996-02-01T16:00:00.000-08:00
p200
sVopenIl6m
p201
I1
sVcollections12MthsExMed
p202
I0
sVexpD
p203
V2016-10-07T18:00:00.000-07:00
p204
sVdti
p205
F23.079999999999998
sVnumActvBcTl
p206
I2
sVannualInc
p207
F70000
sVlistD
p208
V2016-09-07T18:00:00.000-07:00
p209
sVfundedAmount
p210
F2975
sVempLength
p211
I120
sVpctTlNvrDlq
p212
I90
sVtotalBcLimit
p213
I2700
sVaccNowDelinq
p214
I0
sVaddrState
p215
VCT
p216
sVid
p217
I88775933
sVnumTl30dpd
p218
I0
sVserviceFeeRate
p219
F0.95999999999999996
sVaddrZip
p220
V060xx
p221
sVtotalBalIl
p222
F28161
sVpercentBcGt75
p223
F100
sVnumBcSats
p224
I2
sVopenAcc
p225
I10
sVnumAcctsEver120Ppd
p226
I0
sVempTitle
p227
Voffice manager
p228
sVpurpose
p229
Vother
p230
sVbcOpenToBuy
p231
I12
sVnumTl120dpd2m
p232
I0
sVtaxLiens
p233
I0
sVmthsSinceLastRecord
p234
NsVtotalBalExMort
p235
I36166
sVmemberId
p236
I95118794
sVavgCurBal
p237
I25660
sVtotalCuTl
p238
I4
sVmoSinRcntTl
p239
I5
sVmthsSinceLastMajorDerog
p240
I17
sVtotalIlHighCreditLimit
p241
I42974
sVintRate
p242
F13.99
sVchargeoffWithin12Mths
p243
I0
sa(dp244
VopenRv24m
p245
I3
sVaccOpenPast24Mths
p246
I4
sVmthsSinceLastDelinq
p247
NsVdtiJoint
p248
NsVinqFi
p249
I1
sVnumSats
p250
I5
sVmthsSinceRecentBc
p251
I1
sVdesc
p252
NsVbcUtil
p253
F0
sVtotCollAmt
p254
I0
sVreviewStatus
p255
VNOT_APPROVED
p256
sVisIncV
p257
VNOT_VERIFIED
p258
sVnumTlOpPast12m
p259
I2
sVtotalRevHiLim
p260
I15600
sVopenAcc6m
p261
I1
sVterm
p262
I36
sViLUtil
p263
F51.700000000000003
sVinstallment
p264
F268.75
sVmthsSinceRecentRevolDelinq
p265
NsVmaxBalBc
p266
F0
sVrevolBal
p267
F297
sVilsExpD
p268
V2016-09-07T18:00:00.000-07:00
p269
sVpubRec
p270
I0
sVdelinq2Yrs
p271
I0
sVinqLast6Mths
p272
I0
sVisIncVJoint
p273
NsVloanAmount
p274
F8000
sVopenIl24m
p275
I1
sVnumOpRevTl
p276
I4
sVficoRangeHigh
p277
I739
sVpubRecBankruptcies
p278
I0
sVmthsSinceRcntIl
p279
I18
sVnumActvRevTl
p280
I1
sVficoRangeLow
p281
I735
sVacceptD
p282
V2016-08-09T17:16:21.000-07:00
p283
sVinqLast12m
p284
I1
sVmthsSinceRecentBcDlq
p285
NsVrevolUtil
p286
F1.8999999999999999
sVnumIlTl
p287
I2
sVnumRevTlBalGt0
p288
I1
sVapplicationType
p289
VINDIVIDUAL
p290
sVnumTl90gDpd24m
p291
I0
sVexpDefaultRate
p292
F5.4699999999999998
sVcreditPullD
p293
V2016-08-09T17:15:32.000-07:00
p294
sVinitialListStatus
p295
VF
sVmoSinOldIlAcct
p296
I69
sVgrade
p297
VC
sVnumBcTl
p298
I3
sVinvestorCount
p299
NsVopenRv12m
p300
I2
sVtotHiCredLim
p301
I20547
sVreviewStatusD
p302
NsVdelinqAmnt
p303
F0
sVmoSinOldRevTlOp
p304
I29
sVnumRevAccts
p305
I4
sVsubGrade
p306
VC1
p307
sVopenIl12m
p308
I0
sVtotalAcc
p309
I6
sVmortAcc
p310
I0
sVmthsSinceRecentInq
p311
I12
sVannualIncJoint
p312
NsVhomeOwnership
p313
VMORTGAGE
p314
sVmoSinRcntRevTlOp
p315
I1
sVallUtil
p316
F13.9
sVtotCurBal
p317
I2857
sVearliestCrLine
p318
V2010-11-09T16:00:00.000-08:00
p319
sVopenIl6m
p320
I1
sVcollections12MthsExMed
p321
I0
sVexpD
p322
V2016-09-23T17:20:23.000-07:00
p323
sVdti
p324
F11.119999999999999
sVnumActvBcTl
p325
I0
sVannualInc
p326
F30000
sVlistD
p327
V2016-09-07T18:00:00.000-07:00
p328
sVfundedAmount
p329
F5900
sVempLength
p330
I0
sVpctTlNvrDlq
p331
I100
sVtotalBcLimit
p332
I12800
sVaccNowDelinq
p333
I0
sVaddrState
p334
VTX
p335
sVid
p336
I87534211
sVnumTl30dpd
p337
I0
sVserviceFeeRate
p338
F0.95999999999999996
sVaddrZip
p339
V754xx
p340
sVtotalBalIl
p341
F2560
sVpercentBcGt75
p342
F0
sVnumBcSats
p343
I3
sVopenAcc
p344
I5
sVnumAcctsEver120Ppd
p345
I0
sVempTitle
p346
VTeam Member
p347
sVpurpose
p348
Vmajor_purchase
p349
sVbcOpenToBuy
p350
I12800
sVnumTl120dpd2m
p351
I0
sVtaxLiens
p352
I0
sVmthsSinceLastRecord
p353
NsVtotalBalExMort
p354
I2857
sVmemberId
p355
I93823925
sVavgCurBal
p356
I571
sVtotalCuTl
p357
I0
sVmoSinRcntTl
p358
I1
sVmthsSinceLastMajorDerog
p359
NsVtotalIlHighCreditLimit
p360
I4947
sVintRate
p361
F12.789999999999999
sVchargeoffWithin12Mths
p362
I0
sa(dp363
VopenRv24m
p364
I0
sVaccOpenPast24Mths
p365
I1
sVmthsSinceLastDelinq
p366
I80
sVdtiJoint
p367
NsVinqFi
p368
I0
sVnumSats
p369
I7
sVmthsSinceRecentBc
p370
I34
sVdesc
p371
NsVbcUtil
p372
F79.599999999999994
sVtotCollAmt
p373
I0
sVreviewStatus
p374
VAPPROVED
p375
sVisIncV
p376
VVERIFIED
p377
sVnumTlOpPast12m
p378
I0
sVtotalRevHiLim
p379
I4200
sVopenAcc6m
p380
I0
sVterm
p381
I60
sViLUtil
p382
F72.299999999999997
sVinstallment
p383
F280.51999999999998
sVmthsSinceRecentRevolDelinq
p384
I80
sVmaxBalBc
p385
F1714
sVrevolBal
p386
F3345
sVilsExpD
p387
V2016-09-07T18:00:00.000-07:00
p388
sVpubRec
p389
I0
sVdelinq2Yrs
p390
I0
sVinqLast6Mths
p391
I0
sVisIncVJoint
p392
NsVloanAmount
p393
F11925
sVopenIl24m
p394
I1
sVnumOpRevTl
p395
I2
sVficoRangeHigh
p396
I709
sVpubRecBankruptcies
p397
I0
sVmthsSinceRcntIl
p398
I17
sVnumActvRevTl
p399
I2
sVficoRangeLow
p400
I705
sVacceptD
p401
V2016-09-01T03:02:54.000-07:00
p402
sVinqLast12m
p403
I2
sVmthsSinceRecentBcDlq
p404
I80
sVrevolUtil
p405
F79.599999999999994
sVnumIlTl
p406
I10
sVnumRevTlBalGt0
p407
I2
sVapplicationType
p408
VINDIVIDUAL
p409
sVnumTl90gDpd24m
p410
I0
sVexpDefaultRate
p411
F5.3700000000000001
sVcreditPullD
p412
V2016-09-01T02:53:36.000-07:00
p413
sVinitialListStatus
p414
VF
sVmoSinOldIlAcct
p415
I131
sVgrade
p416
VC
sVnumBcTl
p417
I3
sVinvestorCount
p418
NsVopenRv12m
p419
I0
sVtotHiCredLim
p420
I115943
sVreviewStatusD
p421
V2016-09-07T12:38:05.000-07:00
p422
sVdelinqAmnt
p423
F0
sVmoSinOldRevTlOp
p424
I252
sVnumRevAccts
p425
I7
sVsubGrade
p426
VC4
p427
sVopenIl12m
p428
I0
sVtotalAcc
p429
I18
sVmortAcc
p430
I1
sVmthsSinceRecentInq
p431
I6
sVannualIncJoint
p432
NsVhomeOwnership
p433
VRENT
p434
sVmoSinRcntRevTlOp
p435
I34
sVallUtil
p436
F72.799999999999997
sVtotCurBal
p437
I89230
sVearliestCrLine
p438
V1995-08-31T17:00:00.000-07:00
p439
sVopenIl6m
p440
I2
sVcollections12MthsExMed
p441
I0
sVexpD
p442
V2016-10-07T18:00:00.000-07:00
p443
sVdti
p444
F24.780000000000001
sVnumActvBcTl
p445
I2
sVannualInc
p446
F62000
sVlistD
p447
V2016-09-07T18:00:00.000-07:00
p448
sVfundedAmount
p449
F11500
sVempLength
p450
I120
sVpctTlNvrDlq
p451
I94
sVtotalBcLimit
p452
I4200
sVaccNowDelinq
p453
I0
sVaddrState
p454
VOH
p455
sVid
p456
I88965252
sVnumTl30dpd
p457
I0
sVserviceFeeRate
p458
F0.57999999999999996
sVaddrZip
p459
V453xx
p460
sVtotalBalIl
p461
F43855
sVpercentBcGt75
p462
F50
sVnumBcSats
p463
I2
sVopenAcc
p464
I7
sVnumAcctsEver120Ppd
p465
I0
sVempTitle
p466
VTruck driver
p467
sVpurpose
p468
Vdebt_consolidation
p469
sVbcOpenToBuy
p470
I855
sVnumTl120dpd2m
p471
I0
sVtaxLiens
p472
I0
sVmthsSinceLastRecord
p473
NsVtotalBalExMort
p474
I47200
sVmemberId
p475
I95308064
sVavgCurBal
p476
I12747
sVtotalCuTl
p477
I5
sVmoSinRcntTl
p478
I17
sVmthsSinceLastMajorDerog
p479
NsVtotalIlHighCreditLimit
p480
I60643
sVintRate
p481
F14.49
sVchargeoffWithin12Mths
p482
I0
sa(dp483
VopenRv24m
p484
I2
sVaccOpenPast24Mths
p485
I3
sVmthsSinceLastDelinq
p486
NsVdtiJoint
p487
NsVinqFi
p488
I0
sVnumSats
p489
I5
sVmthsSinceRecentBc
p490
I8
sVdesc
p491
NsVbcUtil
p492
F57.299999999999997
sVtotCollAmt
p493
I73
sVreviewStatus
p494
VAPPROVED
p495
sVisIncV
p496
VVERIFIED
p497
sVnumTlOpPast12m
p498
I1
sVtotalRevHiLim
p499
I10600
sVopenAcc6m
p500
I0
sVterm
p501
I36
sViLUtil
p502
NsVinstallment
p503
F237.52000000000001
sVmthsSinceRecentRevolDelinq
p504
NsVmaxBalBc
p505
F3192
sVrevolBal
p506
F6435
sVilsExpD
p507
V2016-09-07T18:00:00.000-07:00
p508
sVpubRec
p509
I0
sVdelinq2Yrs
p510
I0
sVinqLast6Mths
p511
I1
sVisIncVJoint
p512
NsVloanAmount
p513
F7000
sVopenIl24m
p514
I0
sVnumOpRevTl
p515
I4
sVficoRangeHigh
p516
I679
sVpubRecBankruptcies
p517
I0
sVmthsSinceRcntIl
p518
NsVnumActvRevTl
p519
I4
sVficoRangeLow
p520
I675
sVacceptD
p521
V2016-08-31T13:29:46.000-07:00
p522
sVinqLast12m
p523
I2
sVmthsSinceRecentBcDlq
p524
NsVrevolUtil
p525
F60.700000000000003
sVnumIlTl
p526
I0
sVnumRevTlBalGt0
p527
I4
sVapplicationType
p528
VINDIVIDUAL
p529
sVnumTl90gDpd24m
p530
I0
sVexpDefaultRate
p531
F6
sVcreditPullD
p532
V2016-08-31T13:25:41.000-07:00
p533
sVinitialListStatus
p534
VF
sVmoSinOldIlAcct
p535
NsVgrade
p536
VC
sVnumBcTl
p537
I4
sVinvestorCount
p538
NsVopenRv12m
p539
I1
sVtotHiCredLim
p540
I10600
sVreviewStatusD
p541
V2016-09-07T09:12:01.000-07:00
p542
sVdelinqAmnt
p543
F0
sVmoSinOldRevTlOp
p544
I39
sVnumRevAccts
p545
I5
sVsubGrade
p546
VC2
p547
sVopenIl12m
p548
I0
sVtotalAcc
p549
I7
sVmortAcc
p550
I0
sVmthsSinceRecentInq
p551
I4
sVannualIncJoint
p552
NsVhomeOwnership
p553
VRENT
p554
sVmoSinRcntRevTlOp
p555
I8
sVallUtil
p556
F60.700000000000003
sVtotCurBal
p557
I6435
sVearliestCrLine
p558
V2013-05-30T17:00:00.000-07:00
p559
sVopenIl6m
p560
I0
sVcollections12MthsExMed
p561
I0
sVexpD
p562
V2016-10-07T18:00:00.000-07:00
p563
sVdti
p564
F9.7899999999999991
sVnumActvBcTl
p565
I3
sVannualInc
p566
F25000
sVlistD
p567
V2016-09-07T18:00:00.000-07:00
p568
sVfundedAmount
p569
F5950
sVempLength
p570
NsVpctTlNvrDlq
p571
I100
sVtotalBcLimit
p572
I9200
sVaccNowDelinq
p573
I0
sVaddrState
p574
VCT
p575
sVid
p576
I88824335
sVnumTl30dpd
p577
I0
sVserviceFeeRate
p578
F0.95999999999999996
sVaddrZip
p579
V065xx
p580
sVtotalBalIl
p581
F0
sVpercentBcGt75
p582
F0
sVnumBcSats
p583
I3
sVopenAcc
p584
I5
sVnumAcctsEver120Ppd
p585
I0
sVempTitle
p586
NsVpurpose
p587
Vdebt_consolidation
p588
sVbcOpenToBuy
p589
I3930
sVnumTl120dpd2m
p590
I0
sVtaxLiens
p591
I0
sVmthsSinceLastRecord
p592
NsVtotalBalExMort
p593
I6435
sVmemberId
p594
I95167155
sVavgCurBal
p595
I1287
sVtotalCuTl
p596
I0
sVmoSinRcntTl
p597
I8
sVmthsSinceLastMajorDerog
p598
NsVtotalIlHighCreditLimit
p599
I0
sVintRate
p600
F13.49
sVchargeoffWithin12Mths
p601
I0
sa(dp602
VopenRv24m
p603
I1
sVaccOpenPast24Mths
p604
I2
sVmthsSinceLastDelinq
p605
I6
sVdtiJoint
p606
NsVinqFi
p607
I0
sVnumSats
p608
I9
sVmthsSinceRecentBc
p609
I9
sVdesc
p610
NsVbcUtil
p611
F73.099999999999994
sVtotCollAmt
p612
I0
sVreviewStatus
p613
VAPPROVED
p614
sVisIncV
p615
VSOURCE_VERIFIED
p616
sVnumTlOpPast12m
p617
I2
sVtotalRevHiLim
p618
I12100
sVopenAcc6m
p619
I0
sVterm
p620
I36
sViLUtil
p621
F24.399999999999999
sVinstallment
p622
F624.65999999999997
sVmthsSinceRecentRevolDelinq
p623
NsVmaxBalBc
p624
F2723
sVrevolBal
p625
F5265
sVilsExpD
p626
V2016-09-07T18:00:00.000-07:00
p627
sVpubRec
p628
I0
sVdelinq2Yrs
p629
I1
sVinqLast6Mths
p630
I0
sVisIncVJoint
p631
NsVloanAmount
p632
F18150
sVopenIl24m
p633
I0
sVnumOpRevTl
p634
I6
sVficoRangeHigh
p635
I664
sVpubRecBankruptcies
p636
I0
sVmthsSinceRcntIl
p637
I27
sVnumActvRevTl
p638
I4
sVficoRangeLow
p639
I660
sVacceptD
p640
V2016-08-26T10:13:39.000-07:00
p641
sVinqLast12m
p642
I2
sVmthsSinceRecentBcDlq
p643
NsVrevolUtil
p644
F43.5
sVnumIlTl
p645
I2
sVnumRevTlBalGt0
p646
I4
sVapplicationType
p647
VINDIVIDUAL
p648
sVnumTl90gDpd24m
p649
I0
sVexpDefaultRate
p650
F6.7400000000000002
sVcreditPullD
p651
V2016-08-25T11:43:28.000-07:00
p652
sVinitialListStatus
p653
VF
sVmoSinOldIlAcct
p654
I33
sVgrade
p655
VC
sVnumBcTl
p656
I4
sVinvestorCount
p657
NsVopenRv12m
p658
I1
sVtotHiCredLim
p659
I437816
sVreviewStatusD
p660
V2016-09-07T09:28:36.000-07:00
p661
sVdelinqAmnt
p662
F0
sVmoSinOldRevTlOp
p663
I106
sVnumRevAccts
p664
I6
sVsubGrade
p665
VC4
p666
sVopenIl12m
p667
I0
sVtotalAcc
p668
I11
sVmortAcc
p669
I3
sVmthsSinceRecentInq
p670
I9
sVannualIncJoint
p671
NsVhomeOwnership
p672
VMORTGAGE
p673
sVmoSinRcntRevTlOp
p674
I9
sVallUtil
p675
F30.800000000000001
sVtotCurBal
p676
I410493
sVearliestCrLine
p677
V2007-10-24T17:00:00.000-07:00
p678
sVopenIl6m
p679
I2
sVcollections12MthsExMed
p680
I0
sVexpD
p681
V2016-10-07T18:00:00.000-07:00
p682
sVdti
p683
F12.4
sVnumActvBcTl
p684
I4
sVannualInc
p685
F72000
sVlistD
p686
V2016-09-07T18:00:00.000-07:00
p687
sVfundedAmount
p688
F12075
sVempLength
p689
I24
sVpctTlNvrDlq
p690
I81
sVtotalBcLimit
p691
I7200
sVaccNowDelinq
p692
I0
sVaddrState
p693
VNY
p694
sVid
p695
I88585314
sVnumTl30dpd
p696
I0
sVserviceFeeRate
p697
F0.95999999999999996
sVaddrZip
p698
V114xx
p699
sVtotalBalIl
p700
F5898
sVpercentBcGt75
p701
F50
sVnumBcSats
p702
I4
sVopenAcc
p703
I9
sVnumAcctsEver120Ppd
p704
I0
sVempTitle
p705
VAllocator
p706
sVpurpose
p707
Vdebt_consolidation
p708
sVbcOpenToBuy
p709
I1935
sVnumTl120dpd2m
p710
I0
sVtaxLiens
p711
I0
sVmthsSinceLastRecord
p712
NsVtotalBalExMort
p713
I11163
sVmemberId
p714
I94927092
sVavgCurBal
p715
I45610
sVtotalCuTl
p716
I0
sVmoSinRcntTl
p717
I7
sVmthsSinceLastMajorDerog
p718
NsVtotalIlHighCreditLimit
p719
I24161
sVintRate
p720
F14.49
sVchargeoffWithin12Mths
p721
I0
sa(dp722
VopenRv24m
p723
I2
sVaccOpenPast24Mths
p724
I2
sVmthsSinceLastDelinq
p725
NsVdtiJoint
p726
NsVinqFi
p727
I0
sVnumSats
p728
I8
sVmthsSinceRecentBc
p729
I36
sVdesc
p730
NsVbcUtil
p731
F92.099999999999994
sVtotCollAmt
p732
I0
sVreviewStatus
p733
VAPPROVED
p734
sVisIncV
p735
VSOURCE_VERIFIED
p736
sVnumTlOpPast12m
p737
I1
sVtotalRevHiLim
p738
I9300
sVopenAcc6m
p739
I1
sVterm
p740
I36
sViLUtil
p741
F57.100000000000001
sVinstallment
p742
F268.75
sVmthsSinceRecentRevolDelinq
p743
NsVmaxBalBc
p744
F1358
sVrevolBal
p745
F3290
sVilsExpD
p746
V2016-09-07T18:00:00.000-07:00
p747
sVpubRec
p748
I1
sVdelinq2Yrs
p749
I0
sVinqLast6Mths
p750
I1
sVisIncVJoint
p751
NsVloanAmount
p752
F8000
sVopenIl24m
p753
I0
sVnumOpRevTl
p754
I6
sVficoRangeHigh
p755
I664
sVpubRecBankruptcies
p756
I1
sVmthsSinceRcntIl
p757
I25
sVnumActvRevTl
p758
I5
sVficoRangeLow
p759
I660
sVacceptD
p760
V2016-08-28T15:13:14.000-07:00
p761
sVinqLast12m
p762
I1
sVmthsSinceRecentBcDlq
p763
NsVrevolUtil
p764
F35.399999999999999
sVnumIlTl
p765
I2
sVnumRevTlBalGt0
p766
I5
sVapplicationType
p767
VINDIVIDUAL
p768
sVnumTl90gDpd24m
p769
I0
sVexpDefaultRate
p770
F5.4699999999999998
sVcreditPullD
p771
V2016-08-28T14:44:33.000-07:00
p772
sVinitialListStatus
p773
VF
sVmoSinOldIlAcct
p774
I49
sVgrade
p775
VC
sVnumBcTl
p776
I4
sVinvestorCount
p777
NsVopenRv12m
p778
I1
sVtotHiCredLim
p779
I38758
sVreviewStatusD
p780
V2016-09-07T09:25:16.000-07:00
p781
sVdelinqAmnt
p782
F0
sVmoSinOldRevTlOp
p783
I348
sVnumRevAccts
p784
I10
sVsubGrade
p785
VC1
p786
sVopenIl12m
p787
I0
sVtotalAcc
p788
I12
sVmortAcc
p789
I0
sVmthsSinceRecentInq
p790
I6
sVannualIncJoint
p791
NsVhomeOwnership
p792
VRENT
p793
sVmoSinRcntRevTlOp
p794
I6
sVallUtil
p795
F51.899999999999999
sVtotCurBal
p796
I20124
sVearliestCrLine
p797
V1987-08-27T17:00:00.000-07:00
p798
sVopenIl6m
p799
I2
sVcollections12MthsExMed
p800
I0
sVexpD
p801
V2016-10-07T18:00:00.000-07:00
p802
sVdti
p803
F31.629999999999999
sVnumActvBcTl
p804
I2
sVannualInc
p805
F26000
sVlistD
p806
V2016-09-07T18:00:00.000-07:00
p807
sVfundedAmount
p808
F4125
sVempLength
p809
I0
sVpctTlNvrDlq
p810
I100
sVtotalBcLimit
p811
I2000
sVaccNowDelinq
p812
I0
sVaddrState
p813
VMO
p814
sVid
p815
I88981878
sVnumTl30dpd
p816
I0
sVserviceFeeRate
p817
F0.95999999999999996
sVaddrZip
p818
V657xx
p819
sVtotalBalIl
p820
F16834
sVpercentBcGt75
p821
F100
sVnumBcSats
p822
I2
sVopenAcc
p823
I8
sVnumAcctsEver120Ppd
p824
I0
sVempTitle
p825
VAss't Kitchen Mgr
p826
sVpurpose
p827
Vdebt_consolidation
p828
sVbcOpenToBuy
p829
I157
sVnumTl120dpd2m
p830
I0
sVtaxLiens
p831
I0
sVmthsSinceLastRecord
p832
I79
sVtotalBalExMort
p833
I20124
sVmemberId
p834
I95324630
sVavgCurBal
p835
I2516
sVtotalCuTl
p836
I1
sVmoSinRcntTl
p837
I6
sVmthsSinceLastMajorDerog
p838
NsVtotalIlHighCreditLimit
p839
I29458
sVintRate
p840
F12.789999999999999
sVchargeoffWithin12Mths
p841
I0
sa(dp842
VopenRv24m
p843
I18
sVaccOpenPast24Mths
p844
I21
sVmthsSinceLastDelinq
p845
NsVdtiJoint
p846
NsVinqFi
p847
I0
sVnumSats
p848
I28
sVmthsSinceRecentBc
p849
I7
sVdesc
p850
NsVbcUtil
p851
F55.600000000000001
sVtotCollAmt
p852
I0
sVreviewStatus
p853
VAPPROVED
p854
sVisIncV
p855
VVERIFIED
p856
sVnumTlOpPast12m
p857
I14
sVtotalRevHiLim
p858
I56500
sVopenAcc6m
p859
I4
sVterm
p860
I36
sViLUtil
p861
F65.099999999999994
sVinstallment
p862
F273.38999999999999
sVmthsSinceRecentRevolDelinq
p863
NsVmaxBalBc
p864
F3078
sVrevolBal
p865
F21409
sVilsExpD
p866
V2016-09-07T18:00:00.000-07:00
p867
sVpubRec
p868
I0
sVdelinq2Yrs
p869
I0
sVinqLast6Mths
p870
I2
sVisIncVJoint
p871
NsVloanAmount
p872
F8000
sVopenIl24m
p873
I3
sVnumOpRevTl
p874
I25
sVficoRangeHigh
p875
I694
sVpubRecBankruptcies
p876
I0
sVmthsSinceRcntIl
p877
I9
sVnumActvRevTl
p878
I19
sVficoRangeLow
p879
I690
sVacceptD
p880
V2016-09-02T13:27:46.000-07:00
p881
sVinqLast12m
p882
I4
sVmthsSinceRecentBcDlq
p883
NsVrevolUtil
p884
F37.899999999999999
sVnumIlTl
p885
I6
sVnumRevTlBalGt0
p886
I19
sVapplicationType
p887
VINDIVIDUAL
p888
sVnumTl90gDpd24m
p889
I0
sVexpDefaultRate
p890
F6.2999999999999998
sVcreditPullD
p891
V2016-09-02T13:26:41.000-07:00
p892
sVinitialListStatus
p893
VF
sVmoSinOldIlAcct
p894
I63
sVgrade
p895
VC
sVnumBcTl
p896
I16
sVinvestorCount
p897
NsVopenRv12m
p898
I13
sVtotHiCredLim
p899
I83132
sVreviewStatusD
p900
V2016-09-07T10:04:05.000-07:00
p901
sVdelinqAmnt
p902
F0
sVmoSinOldRevTlOp
p903
I194
sVnumRevAccts
p904
I32
sVsubGrade
p905
VC3
p906
sVopenIl12m
p907
I1
sVtotalAcc
p908
I39
sVmortAcc
p909
I0
sVmthsSinceRecentInq
p910
I4
sVannualIncJoint
p911
NsVhomeOwnership
p912
VRENT
p913
sVmoSinRcntRevTlOp
p914
I3
sVallUtil
p915
F46.600000000000001
sVtotCurBal
p916
I38757
sVearliestCrLine
p917
V1983-10-01T17:00:00.000-07:00
p918
sVopenIl6m
p919
I2
sVcollections12MthsExMed
p920
I0
sVexpD
p921
V2016-10-07T18:00:00.000-07:00
p922
sVdti
p923
F25.140000000000001
sVnumActvBcTl
p924
I11
sVannualInc
p925
F66000
sVlistD
p926
V2016-09-07T18:00:00.000-07:00
p927
sVfundedAmount
p928
F7325
sVempLength
p929
I108
sVpctTlNvrDlq
p930
I100
sVtotalBcLimit
p931
I35700
sVaccNowDelinq
p932
I0
sVaddrState
p933
VFL
p934
sVid
p935
I88856945
sVnumTl30dpd
p936
I0
sVserviceFeeRate
p937
F0.95999999999999996
sVaddrZip
p938
V330xx
p939
sVtotalBalIl
p940
F17348
sVpercentBcGt75
p941
F25
sVnumBcSats
p942
I12
sVopenAcc
p943
I28
sVnumAcctsEver120Ppd
p944
I0
sVempTitle
p945
VExecutive assistant 
p946
sVpurpose
p947
Vdebt_consolidation
p948
sVbcOpenToBuy
p949
I15847
sVnumTl120dpd2m
p950
I0
sVtaxLiens
p951
I0
sVmthsSinceLastRecord
p952
NsVtotalBalExMort
p953
I38757
sVmemberId
p954
I95199830
sVavgCurBal
p955
I1384
sVtotalCuTl
p956
I3
sVmoSinRcntTl
p957
I3
sVmthsSinceLastMajorDerog
p958
NsVtotalIlHighCreditLimit
p959
I26632
sVintRate
p960
F13.99
sVchargeoffWithin12Mths
p961
I0
sa(dp962
VopenRv24m
p963
I3
sVaccOpenPast24Mths
p964
I3
sVmthsSinceLastDelinq
p965
I25
sVdtiJoint
p966
NsVinqFi
p967
I1
sVnumSats
p968
I6
sVmthsSinceRecentBc
p969
I16
sVdesc
p970
NsVbcUtil
p971
F28.399999999999999
sVtotCollAmt
p972
I300
sVreviewStatus
p973
VAPPROVED
p974
sVisIncV
p975
VSOURCE_VERIFIED
p976
sVnumTlOpPast12m
p977
I2
sVtotalRevHiLim
p978
I7400
sVopenAcc6m
p979
I0
sVterm
p980
I36
sViLUtil
p981
NsVinstallment
p982
F206.5
sVmthsSinceRecentRevolDelinq
p983
I25
sVmaxBalBc
p984
F1306
sVrevolBal
p985
F2621
sVilsExpD
p986
V2016-09-07T18:00:00.000-07:00
p987
sVpubRec
p988
I0
sVdelinq2Yrs
p989
I0
sVinqLast6Mths
p990
I3
sVisIncVJoint
p991
NsVloanAmount
p992
F6000
sVopenIl24m
p993
I0
sVnumOpRevTl
p994
I6
sVficoRangeHigh
p995
I679
sVpubRecBankruptcies
p996
I0
sVmthsSinceRcntIl
p997
I78
sVnumActvRevTl
p998
I2
sVficoRangeLow
p999
I675
sVacceptD
p1000
V2016-09-02T13:37:39.000-07:00
p1001
sVinqLast12m
p1002
I5
sVmthsSinceRecentBcDlq
p1003
I25
sVrevolUtil
p1004
F35.399999999999999
sVnumIlTl
p1005
I5
sVnumRevTlBalGt0
p1006
I2
sVapplicationType
p1007
VINDIVIDUAL
p1008
sVnumTl90gDpd24m
p1009
I0
sVexpDefaultRate
p1010
F6.7400000000000002
sVcreditPullD
p1011
V2016-09-02T11:35:29.000-07:00
p1012
sVinitialListStatus
p1013
VF
sVmoSinOldIlAcct
p1014
I116
sVgrade
p1015
VC
sVnumBcTl
p1016
I4
sVinvestorCount
p1017
NsVopenRv12m
p1018
I2
sVtotHiCredLim
p1019
I7400
sVreviewStatusD
p1020
V2016-09-07T10:42:39.000-07:00
p1021
sVdelinqAmnt
p1022
F0
sVmoSinOldRevTlOp
p1023
I118
sVnumRevAccts
p1024
I8
sVsubGrade
p1025
VC4
p1026
sVopenIl12m
p1027
I0
sVtotalAcc
p1028
I14
sVmortAcc
p1029
I0
sVmthsSinceRecentInq
p1030
I2
sVannualIncJoint
p1031
NsVhomeOwnership
p1032
VMORTGAGE
p1033
sVmoSinRcntRevTlOp
p1034
I9
sVallUtil
p1035
F35.399999999999999
sVtotCurBal
p1036
I2621
sVearliestCrLine
p1037
V2006-02-01T16:00:00.000-08:00
p1038
sVopenIl6m
p1039
I0
sVcollections12MthsExMed
p1040
I0
sVexpD
p1041
V2016-10-07T18:00:00.000-07:00
p1042
sVdti
p1043
F3.4300000000000002
sVnumActvBcTl
p1044
I1
sVannualInc
p1045
F42000
sVlistD
p1046
V2016-09-07T18:00:00.000-07:00
p1047
sVfundedAmount
p1048
F5125
sVempLength
p1049
I120
sVpctTlNvrDlq
p1050
I92
sVtotalBcLimit
p1051
I4600
sVaccNowDelinq
p1052
I0
sVaddrState
p1053
VFL
p1054
sVid
p1055
I88916679
sVnumTl30dpd
p1056
I0
sVserviceFeeRate
p1057
F0.95999999999999996
sVaddrZip
p1058
V336xx
p1059
sVtotalBalIl
p1060
F0
sVpercentBcGt75
p1061
F0
sVnumBcSats
p1062
I3
sVopenAcc
p1063
I6
sVnumAcctsEver120Ppd
p1064
I0
sVempTitle
p1065
VMerchandise 
p1066
sVpurpose
p1067
Vhome_improvement
p1068
sVbcOpenToBuy
p1069
I3294
sVnumTl120dpd2m
p1070
I0
sVtaxLiens
p1071
I0
sVmthsSinceLastRecord
p1072
NsVtotalBalExMort
p1073
I2621
sVmemberId
p1074
I95259535
sVavgCurBal
p1075
I437
sVtotalCuTl
p1076
I4
sVmoSinRcntTl
p1077
I9
sVmthsSinceLastMajorDerog
p1078
NsVtotalIlHighCreditLimit
p1079
I0
sVintRate
p1080
F14.49
sVchargeoffWithin12Mths
p1081
I0
sa(dp1082
VopenRv24m
p1083
I13
sVaccOpenPast24Mths
p1084
I20
sVmthsSinceLastDelinq
p1085
I55
sVdtiJoint
p1086
NsVinqFi
p1087
I5
sVnumSats
p1088
I26
sVmthsSinceRecentBc
p1089
I4
sVdesc
p1090
NsVbcUtil
p1091
F30.300000000000001
sVtotCollAmt
p1092
I4140
sVreviewStatus
p1093
VAPPROVED
p1094
sVisIncV
p1095
VVERIFIED
p1096
sVnumTlOpPast12m
p1097
I14
sVtotalRevHiLim
p1098
I23700
sVopenAcc6m
p1099
I6
sVterm
p1100
I36
sViLUtil
p1101
F85
sVinstallment
p1102
F190.15000000000001
sVmthsSinceRecentRevolDelinq
p1103
NsVmaxBalBc
p1104
F1517
sVrevolBal
p1105
F5282
sVilsExpD
p1106
V2016-09-07T18:00:00.000-07:00
p1107
sVpubRec
p1108
I1
sVdelinq2Yrs
p1109
I0
sVinqLast6Mths
p1110
I2
sVisIncVJoint
p1111
NsVloanAmount
p1112
F5525
sVopenIl24m
p1113
I5
sVnumOpRevTl
p1114
I21
sVficoRangeHigh
p1115
I669
sVpubRecBankruptcies
p1116
I1
sVmthsSinceRcntIl
p1117
I5
sVnumActvRevTl
p1118
I10
sVficoRangeLow
p1119
I665
sVacceptD
p1120
V2016-09-02T11:45:54.000-07:00
p1121
sVinqLast12m
p1122
I8
sVmthsSinceRecentBcDlq
p1123
NsVrevolUtil
p1124
F22.300000000000001
sVnumIlTl
p1125
I16
sVnumRevTlBalGt0
p1126
I10
sVapplicationType
p1127
VINDIVIDUAL
p1128
sVnumTl90gDpd24m
p1129
I0
sVexpDefaultRate
p1130
F6.7400000000000002
sVcreditPullD
p1131
V2016-09-02T11:41:27.000-07:00
p1132
sVinitialListStatus
p1133
VF
sVmoSinOldIlAcct
p1134
I126
sVgrade
p1135
VC
sVnumBcTl
p1136
I17
sVinvestorCount
p1137
NsVopenRv12m
p1138
I12
sVtotHiCredLim
p1139
I317503
sVreviewStatusD
p1140
V2016-09-07T10:11:58.000-07:00
p1141
sVdelinqAmnt
p1142
F0
sVmoSinOldRevTlOp
p1143
I141
sVnumRevAccts
p1144
I36
sVsubGrade
p1145
VC4
p1146
sVopenIl12m
p1147
I2
sVtotalAcc
p1148
I55
sVmortAcc
p1149
I2
sVmthsSinceRecentInq
p1150
I2
sVannualIncJoint
p1151
NsVhomeOwnership
p1152
VMORTGAGE
p1153
sVmoSinRcntRevTlOp
p1154
I4
sVallUtil
p1155
F67.5
sVtotCurBal
p1156
I283030
sVearliestCrLine
p1157
V2004-12-01T16:00:00.000-08:00
p1158
sVopenIl6m
p1159
I3
sVcollections12MthsExMed
p1160
I1
sVexpD
p1161
V2016-10-07T18:00:00.000-07:00
p1162
sVdti
p1163
F21.09
sVnumActvBcTl
p1164
I6
sVannualInc
p1165
F115000
sVlistD
p1166
V2016-09-07T18:00:00.000-07:00
p1167
sVfundedAmount
p1168
F4300
sVempLength
p1169
I48
sVpctTlNvrDlq
p1170
I98
sVtotalBcLimit
p1171
I13000
sVaccNowDelinq
p1172
I0
sVaddrState
p1173
VVA
p1174
sVid
p1175
I88996378
sVnumTl30dpd
p1176
I0
sVserviceFeeRate
p1177
F0.95999999999999996
sVaddrZip
p1178
V225xx
p1179
sVtotalBalIl
p1180
F104005
sVpercentBcGt75
p1181
F33.299999999999997
sVnumBcSats
p1182
I9
sVopenAcc
p1183
I26
sVnumAcctsEver120Ppd
p1184
I1
sVempTitle
p1185
VElectrician
p1186
sVpurpose
p1187
Vdebt_consolidation
p1188
sVbcOpenToBuy
p1189
I9064
sVnumTl120dpd2m
p1190
I0
sVtaxLiens
p1191
I0
sVmthsSinceLastRecord
p1192
I66
sVtotalBalExMort
p1193
I109287
sVmemberId
p1194
I95339258
sVavgCurBal
p1195
I10886
sVtotalCuTl
p1196
I3
sVmoSinRcntTl
p1197
I4
sVmthsSinceLastMajorDerog
p1198
I55
sVtotalIlHighCreditLimit
p1199
I115348
sVintRate
p1200
F14.49
sVchargeoffWithin12Mths
p1201
I0
sa(dp1202
VopenRv24m
p1203
I10
sVaccOpenPast24Mths
p1204
I10
sVmthsSinceLastDelinq
p1205
NsVdtiJoint
p1206
NsVinqFi
p1207
I0
sVnumSats
p1208
I11
sVmthsSinceRecentBc
p1209
I4
sVdesc
p1210
NsVbcUtil
p1211
F77.700000000000003
sVtotCollAmt
p1212
I0
sVreviewStatus
p1213
VAPPROVED
p1214
sVisIncV
p1215
VSOURCE_VERIFIED
p1216
sVnumTlOpPast12m
p1217
I7
sVtotalRevHiLim
p1218
I15500
sVopenAcc6m
p1219
I3
sVterm
p1220
I36
sViLUtil
p1221
F73.599999999999994
sVinstallment
p1222
F184.77000000000001
sVmthsSinceRecentRevolDelinq
p1223
NsVmaxBalBc
p1224
F3211
sVrevolBal
p1225
F7483
sVilsExpD
p1226
V2016-09-07T18:00:00.000-07:00
p1227
sVpubRec
p1228
I1
sVdelinq2Yrs
p1229
I0
sVinqLast6Mths
p1230
I1
sVisIncVJoint
p1231
NsVloanAmount
p1232
F5500
sVopenIl24m
p1233
I0
sVnumOpRevTl
p1234
I10
sVficoRangeHigh
p1235
I664
sVpubRecBankruptcies
p1236
I1
sVmthsSinceRcntIl
p1237
I56
sVnumActvRevTl
p1238
I7
sVficoRangeLow
p1239
I660
sVacceptD
p1240
V2016-09-02T13:13:59.000-07:00
p1241
sVinqLast12m
p1242
I3
sVmthsSinceRecentBcDlq
p1243
NsVrevolUtil
p1244
F48.299999999999997
sVnumIlTl
p1245
I7
sVnumRevTlBalGt0
p1246
I7
sVapplicationType
p1247
VINDIVIDUAL
p1248
sVnumTl90gDpd24m
p1249
I0
sVexpDefaultRate
p1250
F5.4699999999999998
sVcreditPullD
p1251
V2016-09-02T13:13:31.000-07:00
p1252
sVinitialListStatus
p1253
VF
sVmoSinOldIlAcct
p1254
I118
sVgrade
p1255
VC
sVnumBcTl
p1256
I15
sVinvestorCount
p1257
NsVopenRv12m
p1258
I7
sVtotHiCredLim
p1259
I17690
sVreviewStatusD
p1260
V2016-09-07T10:31:04.000-07:00
p1261
sVdelinqAmnt
p1262
F0
sVmoSinOldRevTlOp
p1263
I252
sVnumRevAccts
p1264
I25
sVsubGrade
p1265
VC1
p1266
sVopenIl12m
p1267
I0
sVtotalAcc
p1268
I33
sVmortAcc
p1269
I1
sVmthsSinceRecentInq
p1270
I5
sVannualIncJoint
p1271
NsVhomeOwnership
p1272
VOWN
p1273
sVmoSinRcntRevTlOp
p1274
I4
sVallUtil
p1275
F51.399999999999999
sVtotCurBal
p1276
I9094
sVearliestCrLine
p1277
V1995-09-01T17:00:00.000-07:00
p1278
sVopenIl6m
p1279
I1
sVcollections12MthsExMed
p1280
I0
sVexpD
p1281
V2016-10-07T18:00:00.000-07:00
p1282
sVdti
p1283
F7.9699999999999998
sVnumActvBcTl
p1284
I3
sVannualInc
p1285
F50000
sVlistD
p1286
V2016-09-07T18:00:00.000-07:00
p1287
sVfundedAmount
p1288
F4050
sVempLength
p1289
I72
sVpctTlNvrDlq
p1290
I100
sVtotalBcLimit
p1291
I8300
sVaccNowDelinq
p1292
I0
sVaddrState
p1293
VGA
p1294
sVid
p1295
I88513341
sVnumTl30dpd
p1296
I0
sVserviceFeeRate
p1297
F0.95999999999999996
sVaddrZip
p1298
V312xx
p1299
sVtotalBalIl
p1300
F1611
sVpercentBcGt75
p1301
F66.700000000000003
sVnumBcSats
p1302
I3
sVopenAcc
p1303
I11
sVnumAcctsEver120Ppd
p1304
I0
sVempTitle
p1305
VTheft/Fire Adjuster
p1306
sVpurpose
p1307
Vdebt_consolidation
p1308
sVbcOpenToBuy
p1309
I1847
sVnumTl120dpd2m
p1310
I0
sVtaxLiens
p1311
I0
sVmthsSinceLastRecord
p1312
I46
sVtotalBalExMort
p1313
I9094
sVmemberId
p1314
I94855055
sVavgCurBal
p1315
I827
sVtotalCuTl
p1316
I0
sVmoSinRcntTl
p1317
I4
sVmthsSinceLastMajorDerog
p1318
NsVtotalIlHighCreditLimit
p1319
I2190
sVintRate
p1320
F12.789999999999999
sVchargeoffWithin12Mths
p1321
I0
sa(dp1322
VopenRv24m
p1323
I8
sVaccOpenPast24Mths
p1324
I9
sVmthsSinceLastDelinq
p1325
NsVdtiJoint
p1326
NsVinqFi
p1327
I0
sVnumSats
p1328
I13
sVmthsSinceRecentBc
p1329
I16
sVdesc
p1330
NsVbcUtil
p1331
F22.100000000000001
sVtotCollAmt
p1332
I0
sVreviewStatus
p1333
VAPPROVED
p1334
sVisIncV
p1335
VSOURCE_VERIFIED
p1336
sVnumTlOpPast12m
p1337
I2
sVtotalRevHiLim
p1338
I17100
sVopenAcc6m
p1339
I0
sVterm
p1340
I36
sViLUtil
p1341
F98.299999999999997
sVinstallment
p1342
F203.59
sVmthsSinceRecentRevolDelinq
p1343
NsVmaxBalBc
p1344
F1045
sVrevolBal
p1345
F2142
sVilsExpD
p1346
V2016-09-07T18:00:00.000-07:00
p1347
sVpubRec
p1348
I3
sVdelinq2Yrs
p1349
I0
sVinqLast6Mths
p1350
I0
sVisIncVJoint
p1351
NsVloanAmount
p1352
F6000
sVopenIl24m
p1353
I1
sVnumOpRevTl
p1354
I10
sVficoRangeHigh
p1355
I684
sVpubRecBankruptcies
p1356
I1
sVmthsSinceRcntIl
p1357
I12
sVnumActvRevTl
p1358
I3
sVficoRangeLow
p1359
I680
sVacceptD
p1360
V2016-09-01T16:45:16.000-07:00
p1361
sVinqLast12m
p1362
I1
sVmthsSinceRecentBcDlq
p1363
NsVrevolUtil
p1364
F12.5
sVnumIlTl
p1365
I7
sVnumRevTlBalGt0
p1366
I3
sVapplicationType
p1367
VINDIVIDUAL
p1368
sVnumTl90gDpd24m
p1369
I0
sVexpDefaultRate
p1370
F6
sVcreditPullD
p1371
V2016-09-01T16:37:46.000-07:00
p1372
sVinitialListStatus
p1373
VF
sVmoSinOldIlAcct
p1374
I121
sVgrade
p1375
VC
sVnumBcTl
p1376
I4
sVinvestorCount
p1377
NsVopenRv12m
p1378
I1
sVtotHiCredLim
p1379
I68554
sVreviewStatusD
p1380
V2016-09-07T09:22:03.000-07:00
p1381
sVdelinqAmnt
p1382
F0
sVmoSinOldRevTlOp
p1383
I177
sVnumRevAccts
p1384
I16
sVsubGrade
p1385
VC2
p1386
sVopenIl12m
p1387
I1
sVtotalAcc
p1388
I23
sVmortAcc
p1389
I0
sVmthsSinceRecentInq
p1390
I11
sVannualIncJoint
p1391
NsVhomeOwnership
p1392
VRENT
p1393
sVmoSinRcntRevTlOp
p1394
I11
sVallUtil
p1395
F76.900000000000006
sVtotCurBal
p1396
I52723
sVearliestCrLine
p1397
V2001-11-30T16:00:00.000-08:00
p1398
sVopenIl6m
p1399
I3
sVcollections12MthsExMed
p1400
I0
sVexpD
p1401
V2016-10-07T18:00:00.000-07:00
p1402
sVdti
p1403
F15.199999999999999
sVnumActvBcTl
p1404
I2
sVannualInc
p1405
F72000
sVlistD
p1406
V2016-09-07T18:00:00.000-07:00
p1407
sVfundedAmount
p1408
F2575
sVempLength
p1409
I120
sVpctTlNvrDlq
p1410
I100
sVtotalBcLimit
p1411
I8200
sVaccNowDelinq
p1412
I0
sVaddrState
p1413
VNY
p1414
sVid
p1415
I88805547
sVnumTl30dpd
p1416
I0
sVserviceFeeRate
p1417
F0.95999999999999996
sVaddrZip
p1418
V104xx
p1419
sVtotalBalIl
p1420
F50581
sVpercentBcGt75
p1421
F0
sVnumBcSats
p1422
I3
sVopenAcc
p1423
I13
sVnumAcctsEver120Ppd
p1424
I0
sVempTitle
p1425
VExec Asst 
p1426
sVpurpose
p1427
Vother
p1428
sVbcOpenToBuy
p1429
I6386
sVnumTl120dpd2m
p1430
I0
sVtaxLiens
p1431
I2
sVmthsSinceLastRecord
p1432
I49
sVtotalBalExMort
p1433
I52723
sVmemberId
p1434
I95148382
sVavgCurBal
p1435
I4394
sVtotalCuTl
p1436
I0
sVmoSinRcntTl
p1437
I11
sVmthsSinceLastMajorDerog
p1438
NsVtotalIlHighCreditLimit
p1439
I51454
sVintRate
p1440
F13.49
sVchargeoffWithin12Mths
p1441
I0
sa(dp1442
VopenRv24m
p1443
I9
sVaccOpenPast24Mths
p1444
I10
sVmthsSinceLastDelinq
p1445
I51
sVdtiJoint
p1446
NsVinqFi
p1447
I2
sVnumSats
p1448
I24
sVmthsSinceRecentBc
p1449
I9
sVdesc
p1450
NsVbcUtil
p1451
F84.400000000000006
sVtotCollAmt
p1452
I7044
sVreviewStatus
p1453
VAPPROVED
p1454
sVisIncV
p1455
VSOURCE_VERIFIED
p1456
sVnumTlOpPast12m
p1457
I7
sVtotalRevHiLim
p1458
I37500
sVopenAcc6m
p1459
I2
sVterm
p1460
I36
sViLUtil
p1461
F70.200000000000003
sVinstallment
p1462
F282.19
sVmthsSinceRecentRevolDelinq
p1463
I51
sVmaxBalBc
p1464
F7294
sVrevolBal
p1465
F22384
sVilsExpD
p1466
V2016-09-07T18:00:00.000-07:00
p1467
sVpubRec
p1468
I1
sVdelinq2Yrs
p1469
I0
sVinqLast6Mths
p1470
I2
sVisIncVJoint
p1471
NsVloanAmount
p1472
F8400
sVopenIl24m
p1473
I1
sVnumOpRevTl
p1474
I23
sVficoRangeHigh
p1475
I664
sVpubRecBankruptcies
p1476
I0
sVmthsSinceRcntIl
p1477
I14
sVnumActvRevTl
p1478
I15
sVficoRangeLow
p1479
I660
sVacceptD
p1480
V2016-09-01T08:31:59.000-07:00
p1481
sVinqLast12m
p1482
I5
sVmthsSinceRecentBcDlq
p1483
I69
sVrevolUtil
p1484
F59.700000000000003
sVnumIlTl
p1485
I2
sVnumRevTlBalGt0
p1486
I15
sVapplicationType
p1487
VINDIVIDUAL
p1488
sVnumTl90gDpd24m
p1489
I0
sVexpDefaultRate
p1490
F5.4699999999999998
sVcreditPullD
p1491
V2016-08-26T10:08:15.000-07:00
p1492
sVinitialListStatus
p1493
VF
sVmoSinOldIlAcct
p1494
I70
sVgrade
p1495
VC
sVnumBcTl
p1496
I21
sVinvestorCount
p1497
NsVopenRv12m
p1498
I7
sVtotHiCredLim
p1499
I47500
sVreviewStatusD
p1500
V2016-09-07T10:21:41.000-07:00
p1501
sVdelinqAmnt
p1502
F0
sVmoSinOldRevTlOp
p1503
I214
sVnumRevAccts
p1504
I62
sVsubGrade
p1505
VC1
p1506
sVopenIl12m
p1507
I0
sVtotalAcc
p1508
I65
sVmortAcc
p1509
I1
sVmthsSinceRecentInq
p1510
I5
sVannualIncJoint
p1511
NsVhomeOwnership
p1512
VMORTGAGE
p1513
sVmoSinRcntRevTlOp
p1514
I5
sVallUtil
p1515
F61.899999999999999
sVtotCurBal
p1516
I29407
sVearliestCrLine
p1517
V1998-10-25T16:00:00.000-08:00
p1518
sVopenIl6m
p1519
I1
sVcollections12MthsExMed
p1520
I0
sVexpD
p1521
V2016-10-07T18:00:00.000-07:00
p1522
sVdti
p1523
F21.850000000000001
sVnumActvBcTl
p1524
I5
sVannualInc
p1525
F80000
sVlistD
p1526
V2016-09-07T18:00:00.000-07:00
p1527
sVfundedAmount
p1528
F3125
sVempLength
p1529
I120
sVpctTlNvrDlq
p1530
I93
sVtotalBcLimit
p1531
I15400
sVaccNowDelinq
p1532
I0
sVaddrState
p1533
VPA
p1534
sVid
p1535
I88970559
sVnumTl30dpd
p1536
I0
sVserviceFeeRate
p1537
F0.95999999999999996
sVaddrZip
p1538
V190xx
p1539
sVtotalBalIl
p1540
F7023
sVpercentBcGt75
p1541
F80
sVnumBcSats
p1542
I5
sVopenAcc
p1543
I24
sVnumAcctsEver120Ppd
p1544
I3
sVempTitle
p1545
Vsupervisor
p1546
sVpurpose
p1547
Vdebt_consolidation
p1548
sVbcOpenToBuy
p1549
I2397
sVnumTl120dpd2m
p1550
I0
sVtaxLiens
p1551
I0
sVmthsSinceLastRecord
p1552
I38
sVtotalBalExMort
p1553
I29407
sVmemberId
p1554
I95313286
sVavgCurBal
p1555
I1279
sVtotalCuTl
p1556
I0
sVmoSinRcntTl
p1557
I5
sVmthsSinceLastMajorDerog
p1558
I51
sVtotalIlHighCreditLimit
p1559
I10000
sVintRate
p1560
F12.789999999999999
sVchargeoffWithin12Mths
p1561
I0
sa(dp1562
VopenRv24m
p1563
I0
sVaccOpenPast24Mths
p1564
I1
sVmthsSinceLastDelinq
p1565
I23
sVdtiJoint
p1566
NsVinqFi
p1567
I0
sVnumSats
p1568
I3
sVmthsSinceRecentBc
p1569
I62
sVdesc
p1570
NsVbcUtil
p1571
F81.200000000000003
sVtotCollAmt
p1572
I0
sVreviewStatus
p1573
VAPPROVED
p1574
sVisIncV
p1575
VSOURCE_VERIFIED
p1576
sVnumTlOpPast12m
p1577
I1
sVtotalRevHiLim
p1578
I4600
sVopenAcc6m
p1579
I0
sVterm
p1580
I36
sViLUtil
p1581
F72.200000000000003
sVinstallment
p1582
F275.32999999999998
sVmthsSinceRecentRevolDelinq
p1583
I23
sVmaxBalBc
p1584
F1055
sVrevolBal
p1585
F1745
sVilsExpD
p1586
V2016-09-07T18:00:00.000-07:00
p1587
sVpubRec
p1588
I0
sVdelinq2Yrs
p1589
I2
sVinqLast6Mths
p1590
I1
sVisIncVJoint
p1591
NsVloanAmount
p1592
F8000
sVopenIl24m
p1593
I1
sVnumOpRevTl
p1594
I2
sVficoRangeHigh
p1595
I664
sVpubRecBankruptcies
p1596
I0
sVmthsSinceRcntIl
p1597
I10
sVnumActvRevTl
p1598
I2
sVficoRangeLow
p1599
I660
sVacceptD
p1600
V2016-09-02T09:01:02.000-07:00
p1601
sVinqLast12m
p1602
I2
sVmthsSinceRecentBcDlq
p1603
I23
sVrevolUtil
p1604
F37.899999999999999
sVnumIlTl
p1605
I2
sVnumRevTlBalGt0
p1606
I2
sVapplicationType
p1607
VINDIVIDUAL
p1608
sVnumTl90gDpd24m
p1609
I1
sVexpDefaultRate
p1610
F6.7400000000000002
sVcreditPullD
p1611
V2016-09-01T16:56:17.000-07:00
p1612
sVinitialListStatus
p1613
VF
sVmoSinOldIlAcct
p1614
I46
sVgrade
p1615
VC
sVnumBcTl
p1616
I4
sVinvestorCount
p1617
NsVopenRv12m
p1618
I0
sVtotHiCredLim
p1619
I14669
sVreviewStatusD
p1620
V2016-09-07T09:05:55.000-07:00
p1621
sVdelinqAmnt
p1622
F0
sVmoSinOldRevTlOp
p1623
I94
sVnumRevAccts
p1624
I8
sVsubGrade
p1625
VC4
p1626
sVopenIl12m
p1627
I1
sVtotalAcc
p1628
I10
sVmortAcc
p1629
I0
sVmthsSinceRecentInq
p1630
I6
sVannualIncJoint
p1631
NsVhomeOwnership
p1632
VRENT
p1633
sVmoSinRcntRevTlOp
p1634
I58
sVallUtil
p1635
F61.5
sVtotCurBal
p1636
I9017
sVearliestCrLine
p1637
V2008-10-31T17:00:00.000-07:00
p1638
sVopenIl6m
p1639
I1
sVcollections12MthsExMed
p1640
I0
sVexpD
p1641
V2016-10-07T18:00:00.000-07:00
p1642
sVdti
p1643
F7.1399999999999997
sVnumActvBcTl
p1644
I1
sVannualInc
p1645
F60000
sVlistD
p1646
V2016-09-07T18:00:00.000-07:00
p1647
sVfundedAmount
p1648
F4750
sVempLength
p1649
I12
sVpctTlNvrDlq
p1650
I80
sVtotalBcLimit
p1651
I1300
sVaccNowDelinq
p1652
I0
sVaddrState
p1653
VNY
p1654
sVid
p1655
I88916153
sVnumTl30dpd
p1656
I0
sVserviceFeeRate
p1657
F0.95999999999999996
sVaddrZip
p1658
V114xx
p1659
sVtotalBalIl
p1660
F7272
sVpercentBcGt75
p1661
F100
sVnumBcSats
p1662
I1
sVopenAcc
p1663
I3
sVnumAcctsEver120Ppd
p1664
I0
sVempTitle
p1665
VDSP
p1666
sVpurpose
p1667
Vother
p1668
sVbcOpenToBuy
p1669
I245
sVnumTl120dpd2m
p1670
I0
sVtaxLiens
p1671
I0
sVmthsSinceLastRecord
p1672
NsVtotalBalExMort
p1673
I9017
sVmemberId
p1674
I95259000
sVavgCurBal
p1675
I3006
sVtotalCuTl
p1676
I0
sVmoSinRcntTl
p1677
I10
sVmthsSinceLastMajorDerog
p1678
I23
sVtotalIlHighCreditLimit
p1679
I10069
sVintRate
p1680
F14.49
sVchargeoffWithin12Mths
p1681
I0
sa(dp1682
VopenRv24m
p1683
I26
sVaccOpenPast24Mths
p1684
I29
sVmthsSinceLastDelinq
p1685
NsVdtiJoint
p1686
NsVinqFi
p1687
I4
sVnumSats
p1688
I54
sVmthsSinceRecentBc
p1689
I3
sVdesc
p1690
NsVbcUtil
p1691
F34.399999999999999
sVtotCollAmt
p1692
I0
sVreviewStatus
p1693
VAPPROVED
p1694
sVisIncV
p1695
VVERIFIED
p1696
sVnumTlOpPast12m
p1697
I11
sVtotalRevHiLim
p1698
I164000
sVopenAcc6m
p1699
I7
sVterm
p1700
I36
sViLUtil
p1701
F70.5
sVinstallment
p1702
F410.07999999999998
sVmthsSinceRecentRevolDelinq
p1703
NsVmaxBalBc
p1704
F7508
sVrevolBal
p1705
F43980
sVilsExpD
p1706
V2016-09-07T18:00:00.000-07:00
p1707
sVpubRec
p1708
I0
sVdelinq2Yrs
p1709
I0
sVinqLast6Mths
p1710
I5
sVisIncVJoint
p1711
NsVloanAmount
p1712
F12000
sVopenIl24m
p1713
I3
sVnumOpRevTl
p1714
I52
sVficoRangeHigh
p1715
I719
sVpubRecBankruptcies
p1716
I0
sVmthsSinceRcntIl
p1717
I16
sVnumActvRevTl
p1718
I22
sVficoRangeLow
p1719
I715
sVacceptD
p1720
V2016-09-02T10:25:33.000-07:00
p1721
sVinqLast12m
p1722
I9
sVmthsSinceRecentBcDlq
p1723
NsVrevolUtil
p1724
F26.800000000000001
sVnumIlTl
p1725
I8
sVnumRevTlBalGt0
p1726
I22
sVapplicationType
p1727
VINDIVIDUAL
p1728
sVnumTl90gDpd24m
p1729
I0
sVexpDefaultRate
p1730
F6.2999999999999998
sVcreditPullD
p1731
V2016-09-02T10:18:30.000-07:00
p1732
sVinitialListStatus
p1733
VF
sVmoSinOldIlAcct
p1734
I66
sVgrade
p1735
VC
sVnumBcTl
p1736
I32
sVinvestorCount
p1737
NsVopenRv12m
p1738
I11
sVtotHiCredLim
p1739
I206346
sVreviewStatusD
p1740
V2016-09-07T09:38:49.000-07:00
p1741
sVdelinqAmnt
p1742
F0
sVmoSinOldRevTlOp
p1743
I237
sVnumRevAccts
p1744
I66
sVsubGrade
p1745
VC3
p1746
sVopenIl12m
p1747
I0
sVtotalAcc
p1748
I74
sVmortAcc
p1749
I0
sVmthsSinceRecentInq
p1750
I1
sVannualIncJoint
p1751
NsVhomeOwnership
p1752
VOWN
p1753
sVmoSinRcntRevTlOp
p1754
I3
sVallUtil
p1755
F35.799999999999997
sVtotCurBal
p1756
I73817
sVearliestCrLine
p1757
V1996-12-01T16:00:00.000-08:00
p1758
sVopenIl6m
p1759
I2
sVcollections12MthsExMed
p1760
I0
sVexpD
p1761
V2016-10-07T18:00:00.000-07:00
p1762
sVdti
p1763
F33.340000000000003
sVnumActvBcTl
p1764
I16
sVannualInc
p1765
F72878
sVlistD
p1766
V2016-09-07T18:00:00.000-07:00
p1767
sVfundedAmount
p1768
F7575
sVempLength
p1769
I120
sVpctTlNvrDlq
p1770
I100
sVtotalBcLimit
p1771
I90900
sVaccNowDelinq
p1772
I0
sVaddrState
p1773
VTX
p1774
sVid
p1775
I88975995
sVnumTl30dpd
p1776
I0
sVserviceFeeRate
p1777
F0.95999999999999996
sVaddrZip
p1778
V750xx
p1779
sVtotalBalIl
p1780
F29837
sVpercentBcGt75
p1781
F0
sVnumBcSats
p1782
I26
sVopenAcc
p1783
I54
sVnumAcctsEver120Ppd
p1784
I0
sVempTitle
p1785
VAlt adminstrator
p1786
sVpurpose
p1787
Vmedical
p1788
sVbcOpenToBuy
p1789
I59623
sVnumTl120dpd2m
p1790
I0
sVtaxLiens
p1791
I0
sVmthsSinceLastRecord
p1792
NsVtotalBalExMort
p1793
I73817
sVmemberId
p1794
I95318864
sVavgCurBal
p1795
I1447
sVtotalCuTl
p1796
I2
sVmoSinRcntTl
p1797
I3
sVmthsSinceLastMajorDerog
p1798
NsVtotalIlHighCreditLimit
p1799
I42346
sVintRate
p1800
F13.99
sVchargeoffWithin12Mths
p1801
I0
sa(dp1802
VopenRv24m
p1803
I8
sVaccOpenPast24Mths
p1804
I9
sVmthsSinceLastDelinq
p1805
I3
sVdtiJoint
p1806
NsVinqFi
p1807
I0
sVnumSats
p1808
I22
sVmthsSinceRecentBc
p1809
I13
sVdesc
p1810
NsVbcUtil
p1811
F42.399999999999999
sVtotCollAmt
p1812
I0
sVreviewStatus
p1813
VAPPROVED
p1814
sVisIncV
p1815
VVERIFIED
p1816
sVnumTlOpPast12m
p1817
I3
sVtotalRevHiLim
p1818
I85000
sVopenAcc6m
p1819
I2
sVterm
p1820
I36
sViLUtil
p1821
F38.700000000000003
sVinstallment
p1822
F413
sVmthsSinceRecentRevolDelinq
p1823
I6
sVmaxBalBc
p1824
F9126
sVrevolBal
p1825
F49797
sVilsExpD
p1826
V2016-09-07T18:00:00.000-07:00
p1827
sVpubRec
p1828
I0
sVdelinq2Yrs
p1829
I3
sVinqLast6Mths
p1830
I1
sVisIncVJoint
p1831
NsVloanAmount
p1832
F12000
sVopenIl24m
p1833
I1
sVnumOpRevTl
p1834
I18
sVficoRangeHigh
p1835
I669
sVpubRecBankruptcies
p1836
I0
sVmthsSinceRcntIl
p1837
I12
sVnumActvRevTl
p1838
I11
sVficoRangeLow
p1839
I665
sVacceptD
p1840
V2016-09-01T10:59:38.000-07:00
p1841
sVinqLast12m
p1842
I1
sVmthsSinceRecentBcDlq
p1843
I77
sVrevolUtil
p1844
F58.600000000000001
sVnumIlTl
p1845
I7
sVnumRevTlBalGt0
p1846
I11
sVapplicationType
p1847
VINDIVIDUAL
p1848
sVnumTl90gDpd24m
p1849
I0
sVexpDefaultRate
p1850
F6.7400000000000002
sVcreditPullD
p1851
V2016-09-01T10:57:58.000-07:00
p1852
sVinitialListStatus
p1853
VF
sVmoSinOldIlAcct
p1854
I205
sVgrade
p1855
VC
sVnumBcTl
p1856
I14
sVinvestorCount
p1857
NsVopenRv12m
p1858
I2
sVtotHiCredLim
p1859
I242808
sVreviewStatusD
p1860
V2016-09-07T09:19:56.000-07:00
p1861
sVdelinqAmnt
p1862
F0
sVmoSinOldRevTlOp
p1863
I190
sVnumRevAccts
p1864
I29
sVsubGrade
p1865
VC4
p1866
sVopenIl12m
p1867
I1
sVtotalAcc
p1868
I41
sVmortAcc
p1869
I3
sVmthsSinceRecentInq
p1870
I1
sVannualIncJoint
p1871
NsVhomeOwnership
p1872
VMORTGAGE
p1873
sVmoSinRcntRevTlOp
p1874
I1
sVallUtil
p1875
F54.399999999999999
sVtotCurBal
p1876
I188758
sVearliestCrLine
p1877
V1995-10-31T16:00:00.000-08:00
p1878
sVopenIl6m
p1879
I2
sVcollections12MthsExMed
p1880
I0
sVexpD
p1881
V2016-10-07T18:00:00.000-07:00
p1882
sVdti
p1883
F27.23
sVnumActvBcTl
p1884
I8
sVannualInc
p1885
F60000
sVlistD
p1886
V2016-09-07T18:00:00.000-07:00
p1887
sVfundedAmount
p1888
F3475
sVempLength
p1889
I120
sVpctTlNvrDlq
p1890
I92
sVtotalBcLimit
p1891
I49000
sVaccNowDelinq
p1892
I0
sVaddrState
p1893
VCO
p1894
sVid
p1895
I88895372
sVnumTl30dpd
p1896
I0
sVserviceFeeRate
p1897
F0.95999999999999996
sVaddrZip
p1898
V802xx
p1899
sVtotalBalIl
p1900
F9178
sVpercentBcGt75
p1901
F50
sVnumBcSats
p1902
I12
sVopenAcc
p1903
I22
sVnumAcctsEver120Ppd
p1904
I1
sVempTitle
p1905
VDivision Manager
p1906
sVpurpose
p1907
Vdebt_consolidation
p1908
sVbcOpenToBuy
p1909
I28225
sVnumTl120dpd2m
p1910
I0
sVtaxLiens
p1911
I0
sVmthsSinceLastRecord
p1912
NsVtotalBalExMort
p1913
I59455
sVmemberId
p1914
I95238205
sVavgCurBal
p1915
I8580
sVtotalCuTl
p1916
I2
sVmoSinRcntTl
p1917
I1
sVmthsSinceLastMajorDerog
p1918
I43
sVtotalIlHighCreditLimit
p1919
I23716
sVintRate
p1920
F14.49
sVchargeoffWithin12Mths
p1921
I0
sa(dp1922
VopenRv24m
p1923
I1
sVaccOpenPast24Mths
p1924
I2
sVmthsSinceLastDelinq
p1925
I24
sVdtiJoint
p1926
NsVinqFi
p1927
I2
sVnumSats
p1928
I8
sVmthsSinceRecentBc
p1929
I19
sVdesc
p1930
NsVbcUtil
p1931
F4.2000000000000002
sVtotCollAmt
p1932
I0
sVreviewStatus
p1933
VAPPROVED
p1934
sVisIncV
p1935
VNOT_VERIFIED
p1936
sVnumTlOpPast12m
p1937
I1
sVtotalRevHiLim
p1938
I14500
sVopenAcc6m
p1939
I0
sVterm
p1940
I36
sViLUtil
p1941
F86.200000000000003
sVinstallment
p1942
F370.69999999999999
sVmthsSinceRecentRevolDelinq
p1943
I49
sVmaxBalBc
p1944
F500
sVrevolBal
p1945
F565
sVilsExpD
p1946
V2016-09-07T18:00:00.000-07:00
p1947
sVpubRec
p1948
I0
sVdelinq2Yrs
p1949
I0
sVinqLast6Mths
p1950
I1
sVisIncVJoint
p1951
NsVloanAmount
p1952
F10925
sVopenIl24m
p1953
I1
sVnumOpRevTl
p1954
I6
sVficoRangeHigh
p1955
I689
sVpubRecBankruptcies
p1956
I0
sVmthsSinceRcntIl
p1957
I12
sVnumActvRevTl
p1958
I2
sVficoRangeLow
p1959
I685
sVacceptD
p1960
V2016-09-02T12:52:00.000-07:00
p1961
sVinqLast12m
p1962
I5
sVmthsSinceRecentBcDlq
p1963
I49
sVrevolUtil
p1964
F3.8999999999999999
sVnumIlTl
p1965
I13
sVnumRevTlBalGt0
p1966
I2
sVapplicationType
p1967
VINDIVIDUAL
p1968
sVnumTl90gDpd24m
p1969
I0
sVexpDefaultRate
p1970
F6
sVcreditPullD
p1971
V2016-09-02T06:44:25.000-07:00
p1972
sVinitialListStatus
p1973
VF
sVmoSinOldIlAcct
p1974
I109
sVgrade
p1975
VC
sVnumBcTl
p1976
I6
sVinvestorCount
p1977
NsVopenRv12m
p1978
I0
sVtotHiCredLim
p1979
I75279
sVreviewStatusD
p1980
V2016-09-07T10:36:34.000-07:00
p1981
sVdelinqAmnt
p1982
F0
sVmoSinOldRevTlOp
p1983
I111
sVnumRevAccts
p1984
I9
sVsubGrade
p1985
VC2
p1986
sVopenIl12m
p1987
I1
sVtotalAcc
p1988
I22
sVmortAcc
p1989
I0
sVmthsSinceRecentInq
p1990
I3
sVannualIncJoint
p1991
NsVhomeOwnership
p1992
VRENT
p1993
sVmoSinRcntRevTlOp
p1994
I19
sVallUtil
p1995
F45.700000000000003
sVtotCurBal
p1996
I59272
sVearliestCrLine
p1997
V2007-06-01T17:00:00.000-07:00
p1998
sVopenIl6m
p1999
I1
sVcollections12MthsExMed
p2000
I1
sVexpD
p2001
V2016-10-07T18:00:00.000-07:00
p2002
sVdti
p2003
F11.869999999999999
sVnumActvBcTl
p2004
I2
sVannualInc
p2005
F45000
sVlistD
p2006
V2016-09-07T18:00:00.000-07:00
p2007
sVfundedAmount
p2008
F3950
sVempLength
p2009
I24
sVpctTlNvrDlq
p2010
I85
sVtotalBcLimit
p2011
I13500
sVaccNowDelinq
p2012
I0
sVaddrState
p2013
VNJ
p2014
sVid
p2015
I88765966
sVnumTl30dpd
p2016
I0
sVserviceFeeRate
p2017
F0.95999999999999996
sVaddrZip
p2018
V088xx
p2019
sVtotalBalIl
p2020
F58707
sVpercentBcGt75
p2021
F0
sVnumBcSats
p2022
I4
sVopenAcc
p2023
I8
sVnumAcctsEver120Ppd
p2024
I1
sVempTitle
p2025
VBDS Operations Administrator 
p2026
sVpurpose
p2027
Vdebt_consolidation
p2028
sVbcOpenToBuy
p2029
I12935
sVnumTl120dpd2m
p2030
I0
sVtaxLiens
p2031
I0
sVmthsSinceLastRecord
p2032
NsVtotalBalExMort
p2033
I59272
sVmemberId
p2034
I95108854
sVavgCurBal
p2035
I8467
sVtotalCuTl
p2036
I1
sVmoSinRcntTl
p2037
I12
sVmthsSinceLastMajorDerog
p2038
I24
sVtotalIlHighCreditLimit
p2039
I60779
sVintRate
p2040
F13.49
sVchargeoffWithin12Mths
p2041
I0
sa(dp2042
VopenRv24m
p2043
I1
sVaccOpenPast24Mths
p2044
I4
sVmthsSinceLastDelinq
p2045
I12
sVdtiJoint
p2046
NsVinqFi
p2047
I1
sVnumSats
p2048
I8
sVmthsSinceRecentBc
p2049
I12
sVdesc
p2050
NsVbcUtil
p2051
F75.400000000000006
sVtotCollAmt
p2052
I0
sVreviewStatus
p2053
VAPPROVED
p2054
sVisIncV
p2055
VVERIFIED
p2056
sVnumTlOpPast12m
p2057
I3
sVtotalRevHiLim
p2058
I13700
sVopenAcc6m
p2059
I1
sVterm
p2060
I36
sViLUtil
p2061
F87.799999999999997
sVinstallment
p2062
F341.73000000000002
sVmthsSinceRecentRevolDelinq
p2063
NsVmaxBalBc
p2064
F4991
sVrevolBal
p2065
F10702
sVilsExpD
p2066
V2016-09-07T18:00:00.000-07:00
p2067
sVpubRec
p2068
I2
sVdelinq2Yrs
p2069
I1
sVinqLast6Mths
p2070
I1
sVisIncVJoint
p2071
NsVloanAmount
p2072
F10000
sVopenIl24m
p2073
I3
sVnumOpRevTl
p2074
I4
sVficoRangeHigh
p2075
I689
sVpubRecBankruptcies
p2076
I0
sVmthsSinceRcntIl
p2077
I4
sVnumActvRevTl
p2078
I4
sVficoRangeLow
p2079
I685
sVacceptD
p2080
V2016-09-02T10:21:52.000-07:00
p2081
sVinqLast12m
p2082
I4
sVmthsSinceRecentBcDlq
p2083
NsVrevolUtil
p2084
F78.099999999999994
sVnumIlTl
p2085
I7
sVnumRevTlBalGt0
p2086
I4
sVapplicationType
p2087
VINDIVIDUAL
p2088
sVnumTl90gDpd24m
p2089
I0
sVexpDefaultRate
p2090
F6.2999999999999998
sVcreditPullD
p2091
V2016-09-02T09:24:19.000-07:00
p2092
sVinitialListStatus
p2093
VF
sVmoSinOldIlAcct
p2094
I122
sVgrade
p2095
VC
sVnumBcTl
p2096
I3
sVinvestorCount
p2097
NsVopenRv12m
p2098
I1
sVtotHiCredLim
p2099
I679992
sVreviewStatusD
p2100
V2016-09-07T10:19:02.000-07:00
p2101
sVdelinqAmnt
p2102
F0
sVmoSinOldRevTlOp
p2103
I241
sVnumRevAccts
p2104
I6
sVsubGrade
p2105
VC3
p2106
sVopenIl12m
p2107
I2
sVtotalAcc
p2108
I14
sVmortAcc
p2109
I1
sVmthsSinceRecentInq
p2110
I3
sVannualIncJoint
p2111
NsVhomeOwnership
p2112
VRENT
p2113
sVmoSinRcntRevTlOp
p2114
I12
sVallUtil
p2115
F80.700000000000003
sVtotCurBal
p2116
I532902
sVearliestCrLine
p2117
V1996-08-01T17:00:00.000-07:00
p2118
sVopenIl6m
p2119
I2
sVcollections12MthsExMed
p2120
I0
sVexpD
p2121
V2016-10-07T18:00:00.000-07:00
p2122
sVdti
p2123
F25.190000000000001
sVnumActvBcTl
p2124
I2
sVannualInc
p2125
F108000
sVlistD
p2126
V2016-09-07T18:00:00.000-07:00
p2127
sVfundedAmount
p2128
F1275
sVempLength
p2129
NsVpctTlNvrDlq
p2130
I92
sVtotalBcLimit
p2131
I10900
sVaccNowDelinq
p2132
I0
sVaddrState
p2133
VMD
p2134
sVid
p2135
I88785868
sVnumTl30dpd
p2136
I0
sVserviceFeeRate
p2137
F0.95999999999999996
sVaddrZip
p2138
V207xx
p2139
sVtotalBalIl
p2140
F75624
sVpercentBcGt75
p2141
F50
sVnumBcSats
p2142
I2
sVopenAcc
p2143
I8
sVnumAcctsEver120Ppd
p2144
I0
sVempTitle
p2145
NsVpurpose
p2146
Vcredit_card
p2147
sVbcOpenToBuy
p2148
I2676
sVnumTl120dpd2m
p2149
I0
sVtaxLiens
p2150
I0
sVmthsSinceLastRecord
p2151
I55
sVtotalBalExMort
p2152
I86326
sVmemberId
p2153
I95128710
sVavgCurBal
p2154
I66613
sVtotalCuTl
p2155
I0
sVmoSinRcntTl
p2156
I4
sVmthsSinceLastMajorDerog
p2157
NsVtotalIlHighCreditLimit
p2158
I86292
sVintRate
p2159
F13.99
sVchargeoffWithin12Mths
p2160
I0
sa(dp2161
VopenRv24m
p2162
I0
sVaccOpenPast24Mths
p2163
I0
sVmthsSinceLastDelinq
p2164
I4
sVdtiJoint
p2165
NsVinqFi
p2166
I0
sVnumSats
p2167
I8
sVmthsSinceRecentBc
p2168
I40
sVdesc
p2169
NsVbcUtil
p2170
F58.299999999999997
sVtotCollAmt
p2171
I0
sVreviewStatus
p2172
VAPPROVED
p2173
sVisIncV
p2174
VSOURCE_VERIFIED
p2175
sVnumTlOpPast12m
p2176
I0
sVtotalRevHiLim
p2177
I33500
sVopenAcc6m
p2178
I0
sVterm
p2179
I36
sViLUtil
p2180
F59
sVinstallment
p2181
F873.41999999999996
sVmthsSinceRecentRevolDelinq
p2182
NsVmaxBalBc
p2183
F7809
sVrevolBal
p2184
F19752
sVilsExpD
p2185
V2016-09-07T18:00:00.000-07:00
p2186
sVpubRec
p2187
I0
sVdelinq2Yrs
p2188
I1
sVinqLast6Mths
p2189
I0
sVisIncVJoint
p2190
NsVloanAmount
p2191
F26000
sVopenIl24m
p2192
I0
sVnumOpRevTl
p2193
I4
sVficoRangeHigh
p2194
I699
sVpubRecBankruptcies
p2195
I0
sVmthsSinceRcntIl
p2196
I25
sVnumActvRevTl
p2197
I3
sVficoRangeLow
p2198
I695
sVacceptD
p2199
V2016-09-02T10:47:06.000-07:00
p2200
sVinqLast12m
p2201
I0
sVmthsSinceRecentBcDlq
p2202
NsVrevolUtil
p2203
F59
sVnumIlTl
p2204
I9
sVnumRevTlBalGt0
p2205
I3
sVapplicationType
p2206
VINDIVIDUAL
p2207
sVnumTl90gDpd24m
p2208
I0
sVexpDefaultRate
p2209
F5.4699999999999998
sVcreditPullD
p2210
V2016-09-02T10:41:19.000-07:00
p2211
sVinitialListStatus
p2212
VF
sVmoSinOldIlAcct
p2213
I124
sVgrade
p2214
VC
sVnumBcTl
p2215
I2
sVinvestorCount
p2216
NsVopenRv12m
p2217
I0
sVtotHiCredLim
p2218
I133304
sVreviewStatusD
p2219
V2016-09-07T09:48:57.000-07:00
p2220
sVdelinqAmnt
p2221
F0
sVmoSinOldRevTlOp
p2222
I121
sVnumRevAccts
p2223
I6
sVsubGrade
p2224
VC1
p2225
sVopenIl12m
p2226
I0
sVtotalAcc
p2227
I16
sVmortAcc
p2228
I1
sVmthsSinceRecentInq
p2229
NsVannualIncJoint
p2230
NsVhomeOwnership
p2231
VRENT
p2232
sVmoSinRcntRevTlOp
p2233
I40
sVallUtil
p2234
F59
sVtotCurBal
p2235
I78633
sVearliestCrLine
p2236
V2005-11-01T16:00:00.000-08:00
p2237
sVopenIl6m
p2238
I2
sVcollections12MthsExMed
p2239
I0
sVexpD
p2240
V2016-10-07T18:00:00.000-07:00
p2241
sVdti
p2242
F22.690000000000001
sVnumActvBcTl
p2243
I2
sVannualInc
p2244
F100000
sVlistD
p2245
V2016-09-07T18:00:00.000-07:00
p2246
sVfundedAmount
p2247
F14500
sVempLength
p2248
I12
sVpctTlNvrDlq
p2249
I93
sVtotalBcLimit
p2250
I26500
sVaccNowDelinq
p2251
I0
sVaddrState
p2252
VMD
p2253
sVid
p2254
I88856808
sVnumTl30dpd
p2255
I0
sVserviceFeeRate
p2256
F0.95999999999999996
sVaddrZip
p2257
V214xx
p2258
sVtotalBalIl
p2259
F58881
sVpercentBcGt75
p2260
F50
sVnumBcSats
p2261
I2
sVopenAcc
p2262
I8
sVnumAcctsEver120Ppd
p2263
I0
sVempTitle
p2264
VDirector of Operations
p2265
sVpurpose
p2266
Vdebt_consolidation
p2267
sVbcOpenToBuy
p2268
I11054
sVnumTl120dpd2m
p2269
I0
sVtaxLiens
p2270
I0
sVmthsSinceLastRecord
p2271
NsVtotalBalExMort
p2272
I78633
sVmemberId
p2273
I95199688
sVavgCurBal
p2274
I11233
sVtotalCuTl
p2275
I2
sVmoSinRcntTl
p2276
I25
sVmthsSinceLastMajorDerog
p2277
NsVtotalIlHighCreditLimit
p2278
I99804
sVintRate
p2279
F12.789999999999999
sVchargeoffWithin12Mths
p2280
I0
sa(dp2281
VopenRv24m
p2282
I5
sVaccOpenPast24Mths
p2283
I8
sVmthsSinceLastDelinq
p2284
NsVdtiJoint
p2285
NsVinqFi
p2286
I5
sVnumSats
p2287
I25
sVmthsSinceRecentBc
p2288
I14
sVdesc
p2289
NsVbcUtil
p2290
F36.100000000000001
sVtotCollAmt
p2291
I0
sVreviewStatus
p2292
VAPPROVED
p2293
sVisIncV
p2294
VNOT_VERIFIED
p2295
sVnumTlOpPast12m
p2296
I1
sVtotalRevHiLim
p2297
I137200
sVopenAcc6m
p2298
I0
sVterm
p2299
I60
sViLUtil
p2300
F81.099999999999994
sVinstallment
p2301
F352.85000000000002
sVmthsSinceRecentRevolDelinq
p2302
NsVmaxBalBc
p2303
F14510
sVrevolBal
p2304
F50315
sVilsExpD
p2305
V2016-09-07T18:00:00.000-07:00
p2306
sVpubRec
p2307
I0
sVdelinq2Yrs
p2308
I0
sVinqLast6Mths
p2309
I3
sVisIncVJoint
p2310
NsVloanAmount
p2311
F15000
sVopenIl24m
p2312
I1
sVnumOpRevTl
p2313
I20
sVficoRangeHigh
p2314
I709
sVpubRecBankruptcies
p2315
I0
sVmthsSinceRcntIl
p2316
I12
sVnumActvRevTl
p2317
I10
sVficoRangeLow
p2318
I705
sVacceptD
p2319
V2016-09-04T08:21:53.000-07:00
p2320
sVinqLast12m
p2321
I16
sVmthsSinceRecentBcDlq
p2322
NsVrevolUtil
p2323
F36.700000000000003
sVnumIlTl
p2324
I12
sVnumRevTlBalGt0
p2325
I10
sVapplicationType
p2326
VINDIVIDUAL
p2327
sVnumTl90gDpd24m
p2328
I0
sVexpDefaultRate
p2329
F5.3700000000000001
sVcreditPullD
p2330
V2016-09-04T07:56:11.000-07:00
p2331
sVinitialListStatus
p2332
VF
sVmoSinOldIlAcct
p2333
I139
sVgrade
p2334
VC
sVnumBcTl
p2335
I25
sVinvestorCount
p2336
NsVopenRv12m
p2337
I0
sVtotHiCredLim
p2338
I688236
sVreviewStatusD
p2339
V2016-09-07T13:46:55.000-07:00
p2340
sVdelinqAmnt
p2341
F0
sVmoSinOldRevTlOp
p2342
I343
sVnumRevAccts
p2343
I43
sVsubGrade
p2344
VC4
p2345
sVopenIl12m
p2346
I1
sVtotalAcc
p2347
I63
sVmortAcc
p2348
I7
sVmthsSinceRecentInq
p2349
I0
sVannualIncJoint
p2350
NsVhomeOwnership
p2351
VMORTGAGE
p2352
sVmoSinRcntRevTlOp
p2353
I14
sVallUtil
p2354
F40.299999999999997
sVtotCurBal
p2355
I552739
sVearliestCrLine
p2356
V1988-02-03T16:00:00.000-08:00
p2357
sVopenIl6m
p2358
I0
sVcollections12MthsExMed
p2359
I0
sVexpD
p2360
V2016-10-07T18:00:00.000-07:00
p2361
sVdti
p2362
F14.970000000000001
sVnumActvBcTl
p2363
I9
sVannualInc
p2364
F90000
sVlistD
p2365
V2016-09-07T18:00:00.000-07:00
p2366
sVfundedAmount
p2367
F11825
sVempLength
p2368
I120
sVpctTlNvrDlq
p2369
I100
sVtotalBcLimit
p2370
I125600
sVaccNowDelinq
p2371
I0
sVaddrState
p2372
VIL
p2373
sVid
p2374
I88826877
sVnumTl30dpd
p2375
I0
sVserviceFeeRate
p2376
F0.57999999999999996
sVaddrZip
p2377
V604xx
p2378
sVtotalBalIl
p2379
F10137
sVpercentBcGt75
p2380
F7.7000000000000002
sVnumBcSats
p2381
I13
sVopenAcc
p2382
I25
sVnumAcctsEver120Ppd
p2383
I0
sVempTitle
p2384
VSenior Rehabilitation Counselor 
p2385
sVpurpose
p2386
Vdebt_consolidation
p2387
sVbcOpenToBuy
p2388
I80292
sVnumTl120dpd2m
p2389
I0
sVtaxLiens
p2390
I0
sVmthsSinceLastRecord
p2391
NsVtotalBalExMort
p2392
I60784
sVmemberId
p2393
I95169775
sVavgCurBal
p2394
I25125
sVtotalCuTl
p2395
I3
sVmoSinRcntTl
p2396
I12
sVmthsSinceLastMajorDerog
p2397
NsVtotalIlHighCreditLimit
p2398
I12500
sVintRate
p2399
F14.49
sVchargeoffWithin12Mths
p2400
I0
sa(dp2401
VopenRv24m
p2402
I3
sVaccOpenPast24Mths
p2403
I3
sVmthsSinceLastDelinq
p2404
I11
sVdtiJoint
p2405
NsVinqFi
p2406
I0
sVnumSats
p2407
I5
sVmthsSinceRecentBc
p2408
I11
sVdesc
p2409
NsVbcUtil
p2410
F0
sVtotCollAmt
p2411
I0
sVreviewStatus
p2412
VAPPROVED
p2413
sVisIncV
p2414
VSOURCE_VERIFIED
p2415
sVnumTlOpPast12m
p2416
I1
sVtotalRevHiLim
p2417
I118700
sVopenAcc6m
p2418
I0
sVterm
p2419
I36
sViLUtil
p2420
NsVinstallment
p2421
F508.95999999999998
sVmthsSinceRecentRevolDelinq
p2422
I11
sVmaxBalBc
p2423
F0
sVrevolBal
p2424
F110
sVilsExpD
p2425
V2016-09-07T18:00:00.000-07:00
p2426
sVpubRec
p2427
I7
sVdelinq2Yrs
p2428
I1
sVinqLast6Mths
p2429
I1
sVisIncVJoint
p2430
NsVloanAmount
p2431
F15000
sVopenIl24m
p2432
I0
sVnumOpRevTl
p2433
I4
sVficoRangeHigh
p2434
I669
sVpubRecBankruptcies
p2435
I0
sVmthsSinceRcntIl
p2436
NsVnumActvRevTl
p2437
I1
sVficoRangeLow
p2438
I665
sVacceptD
p2439
V2016-09-02T11:16:21.000-07:00
p2440
sVinqLast12m
p2441
I2
sVmthsSinceRecentBcDlq
p2442
NsVrevolUtil
p2443
F0
sVnumIlTl
p2444
I0
sVnumRevTlBalGt0
p2445
I1
sVapplicationType
p2446
VINDIVIDUAL
p2447
sVnumTl90gDpd24m
p2448
I1
sVexpDefaultRate
p2449
F6
sVcreditPullD
p2450
V2016-09-02T11:15:25.000-07:00
p2451
sVinitialListStatus
p2452
VF
sVmoSinOldIlAcct
p2453
NsVgrade
p2454
VC
sVnumBcTl
p2455
I10
sVinvestorCount
p2456
NsVopenRv12m
p2457
I1
sVtotHiCredLim
p2458
I494700
sVreviewStatusD
p2459
V2016-09-07T10:27:02.000-07:00
p2460
sVdelinqAmnt
p2461
F0
sVmoSinOldRevTlOp
p2462
I346
sVnumRevAccts
p2463
I15
sVsubGrade
p2464
VC2
p2465
sVopenIl12m
p2466
I0
sVtotalAcc
p2467
I18
sVmortAcc
p2468
I3
sVmthsSinceRecentInq
p2469
I5
sVannualIncJoint
p2470
NsVhomeOwnership
p2471
VOWN
p2472
sVmoSinRcntRevTlOp
p2473
I11
sVallUtil
p2474
F0
sVtotCurBal
p2475
I341324
sVearliestCrLine
p2476
V1987-11-01T16:00:00.000-08:00
p2477
sVopenIl6m
p2478
I0
sVcollections12MthsExMed
p2479
I0
sVexpD
p2480
V2016-10-07T18:00:00.000-07:00
p2481
sVdti
p2482
F0.35999999999999999
sVnumActvBcTl
p2483
I0
sVannualInc
p2484
F92000
sVlistD
p2485
V2016-09-07T18:00:00.000-07:00
p2486
sVfundedAmount
p2487
F875
sVempLength
p2488
I48
sVpctTlNvrDlq
p2489
I88
sVtotalBcLimit
p2490
I18700
sVaccNowDelinq
p2491
I0
sVaddrState
p2492
VNY
p2493
sVid
p2494
I88946007
sVnumTl30dpd
p2495
I0
sVserviceFeeRate
p2496
F0.95999999999999996
sVaddrZip
p2497
V142xx
p2498
sVtotalBalIl
p2499
F0
sVpercentBcGt75
p2500
F0
sVnumBcSats
p2501
I3
sVopenAcc
p2502
I5
sVnumAcctsEver120Ppd
p2503
I2
sVempTitle
p2504
Vmanger
p2505
sVpurpose
p2506
Vhome_improvement
p2507
sVbcOpenToBuy
p2508
I18700
sVnumTl120dpd2m
p2509
I0
sVtaxLiens
p2510
I7
sVmthsSinceLastRecord
p2511
I5
sVtotalBalExMort
p2512
I110
sVmemberId
p2513
I95288854
sVavgCurBal
p2514
I68265
sVtotalCuTl
p2515
I0
sVmoSinRcntTl
p2516
I11
sVmthsSinceLastMajorDerog
p2517
I11
sVtotalIlHighCreditLimit
p2518
I0
sVintRate
p2519
F13.49
sVchargeoffWithin12Mths
p2520
I1
sa(dp2521
VopenRv24m
p2522
I0
sVaccOpenPast24Mths
p2523
I4
sVmthsSinceLastDelinq
p2524
NsVdtiJoint
p2525
NsVinqFi
p2526
I0
sVnumSats
p2527
I7
sVmthsSinceRecentBc
p2528
I26
sVdesc
p2529
NsVbcUtil
p2530
F2.3999999999999999
sVtotCollAmt
p2531
I0
sVreviewStatus
p2532
VAPPROVED
p2533
sVisIncV
p2534
VNOT_VERIFIED
p2535
sVnumTlOpPast12m
p2536
I3
sVtotalRevHiLim
p2537
I24100
sVopenAcc6m
p2538
I1
sVterm
p2539
I36
sViLUtil
p2540
F87.200000000000003
sVinstallment
p2541
F765.48000000000002
sVmthsSinceRecentRevolDelinq
p2542
NsVmaxBalBc
p2543
F296
sVrevolBal
p2544
F723
sVilsExpD
p2545
V2016-09-07T18:00:00.000-07:00
p2546
sVpubRec
p2547
I0
sVdelinq2Yrs
p2548
I0
sVinqLast6Mths
p2549
I0
sVisIncVJoint
p2550
NsVloanAmount
p2551
F22400
sVopenIl24m
p2552
I4
sVnumOpRevTl
p2553
I5
sVficoRangeHigh
p2554
I789
sVpubRecBankruptcies
p2555
I0
sVmthsSinceRcntIl
p2556
I5
sVnumActvRevTl
p2557
I3
sVficoRangeLow
p2558
I785
sVacceptD
p2559
V2016-09-07T10:35:28.000-07:00
p2560
sVinqLast12m
p2561
I0
sVmthsSinceRecentBcDlq
p2562
NsVrevolUtil
p2563
F3
sVnumIlTl
p2564
I7
sVnumRevTlBalGt0
p2565
I3
sVapplicationType
p2566
VINDIVIDUAL
p2567
sVnumTl90gDpd24m
p2568
I0
sVexpDefaultRate
p2569
F6.2999999999999998
sVcreditPullD
p2570
V2016-09-07T10:26:00.000-07:00
p2571
sVinitialListStatus
p2572
VF
sVmoSinOldIlAcct
p2573
I45
sVgrade
p2574
VC
sVnumBcTl
p2575
I4
sVinvestorCount
p2576
NsVopenRv12m
p2577
I0
sVtotHiCredLim
p2578
I44100
sVreviewStatusD
p2579
V2016-09-07T10:37:43.000-07:00
p2580
sVdelinqAmnt
p2581
F0
sVmoSinOldRevTlOp
p2582
I150
sVnumRevAccts
p2583
I8
sVsubGrade
p2584
VC3
p2585
sVopenIl12m
p2586
I3
sVtotalAcc
p2587
I15
sVmortAcc
p2588
I0
sVmthsSinceRecentInq
p2589
NsVannualIncJoint
p2590
NsVhomeOwnership
p2591
VRENT
p2592
sVmoSinRcntRevTlOp
p2593
I26
sVallUtil
p2594
F41.200000000000003
sVtotCurBal
p2595
I18161
sVearliestCrLine
p2596
V2004-03-06T16:00:00.000-08:00
p2597
sVopenIl6m
p2598
I2
sVcollections12MthsExMed
p2599
I0
sVexpD
p2600
V2016-10-07T18:00:00.000-07:00
p2601
sVdti
p2602
F10.609999999999999
sVnumActvBcTl
p2603
I2
sVannualInc
p2604
F76498
sVlistD
p2605
V2016-09-07T18:00:00.000-07:00
p2606
sVfundedAmount
p2607
F19525
sVempLength
p2608
I120
sVpctTlNvrDlq
p2609
I100
sVtotalBcLimit
p2610
I21500
sVaccNowDelinq
p2611
I0
sVaddrState
p2612
VMD
p2613
sVid
p2614
I88853152
sVnumTl30dpd
p2615
I0
sVserviceFeeRate
p2616
F0.95999999999999996
sVaddrZip
p2617
V207xx
p2618
sVtotalBalIl
p2619
F17438
sVpercentBcGt75
p2620
F0
sVnumBcSats
p2621
I3
sVopenAcc
p2622
I7
sVnumAcctsEver120Ppd
p2623
I0
sVempTitle
p2624
VSecretary
p2625
sVpurpose
p2626
Vmajor_purchase
p2627
sVbcOpenToBuy
p2628
I20984
sVnumTl120dpd2m
p2629
I0
sVtaxLiens
p2630
I0
sVmthsSinceLastRecord
p2631
NsVtotalBalExMort
p2632
I18161
sVmemberId
p2633
I95195957
sVavgCurBal
p2634
I2594
sVtotalCuTl
p2635
I0
sVmoSinRcntTl
p2636
I5
sVmthsSinceLastMajorDerog
p2637
NsVtotalIlHighCreditLimit
p2638
I20000
sVintRate
p2639
F13.99
sVchargeoffWithin12Mths
p2640
I0
sa(dp2641
VopenRv24m
p2642
I4
sVaccOpenPast24Mths
p2643
I5
sVmthsSinceLastDelinq
p2644
I38
sVdtiJoint
p2645
NsVinqFi
p2646
I0
sVnumSats
p2647
I7
sVmthsSinceRecentBc
p2648
I2
sVdesc
p2649
NsVbcUtil
p2650
F25.399999999999999
sVtotCollAmt
p2651
I0
sVreviewStatus
p2652
VAPPROVED
p2653
sVisIncV
p2654
VSOURCE_VERIFIED
p2655
sVnumTlOpPast12m
p2656
I3
sVtotalRevHiLim
p2657
I13400
sVopenAcc6m
p2658
I1
sVterm
p2659
I36
sViLUtil
p2660
NsVinstallment
p2661
F240.91999999999999
sVmthsSinceRecentRevolDelinq
p2662
I38
sVmaxBalBc
p2663
F1189
sVrevolBal
p2664
F3895
sVilsExpD
p2665
V2016-09-07T18:00:00.000-07:00
p2666
sVpubRec
p2667
I1
sVdelinq2Yrs
p2668
I0
sVinqLast6Mths
p2669
I0
sVisIncVJoint
p2670
NsVloanAmount
p2671
F7000
sVopenIl24m
p2672
I1
sVnumOpRevTl
p2673
I6
sVficoRangeHigh
p2674
I694
sVpubRecBankruptcies
p2675
I0
sVmthsSinceRcntIl
p2676
I7
sVnumActvRevTl
p2677
I5
sVficoRangeLow
p2678
I690
sVacceptD
p2679
V2016-09-05T17:56:44.000-07:00
p2680
sVinqLast12m
p2681
I2
sVmthsSinceRecentBcDlq
p2682
I38
sVrevolUtil
p2683
F29.100000000000001
sVnumIlTl
p2684
I11
sVnumRevTlBalGt0
p2685
I5
sVapplicationType
p2686
VINDIVIDUAL
p2687
sVnumTl90gDpd24m
p2688
I0
sVexpDefaultRate
p2689
F6.7400000000000002
sVcreditPullD
p2690
V2016-09-05T12:02:27.000-07:00
p2691
sVinitialListStatus
p2692
VF
sVmoSinOldIlAcct
p2693
I169
sVgrade
p2694
VC
sVnumBcTl
p2695
I8
sVinvestorCount
p2696
NsVopenRv12m
p2697
I2
sVtotHiCredLim
p2698
I66150
sVreviewStatusD
p2699
V2016-09-07T09:06:28.000-07:00
p2700
sVdelinqAmnt
p2701
F0
sVmoSinOldRevTlOp
p2702
I209
sVnumRevAccts
p2703
I9
sVsubGrade
p2704
VC4
p2705
sVopenIl12m
p2706
I1
sVtotalAcc
p2707
I20
sVmortAcc
p2708
I0
sVmthsSinceRecentInq
p2709
I6
sVannualIncJoint
p2710
NsVhomeOwnership
p2711
VRENT
p2712
sVmoSinRcntRevTlOp
p2713
I2
sVallUtil
p2714
F29.100000000000001
sVtotCurBal
p2715
I54412
sVearliestCrLine
p2716
V1999-04-04T17:00:00.000-07:00
p2717
sVopenIl6m
p2718
I1
sVcollections12MthsExMed
p2719
I0
sVexpD
p2720
V2016-10-07T18:00:00.000-07:00
p2721
sVdti
p2722
F3.8199999999999998
sVnumActvBcTl
p2723
I4
sVannualInc
p2724
F307872
sVlistD
p2725
V2016-09-07T18:00:00.000-07:00
p2726
sVfundedAmount
p2727
F2800
sVempLength
p2728
I12
sVpctTlNvrDlq
p2729
I85
sVtotalBcLimit
p2730
I10300
sVaccNowDelinq
p2731
I0
sVaddrState
p2732
VNY
p2733
sVid
p2734
I88836993
sVnumTl30dpd
p2735
I0
sVserviceFeeRate
p2736
F0.95999999999999996
sVaddrZip
p2737
V115xx
p2738
sVtotalBalIl
p2739
F50517
sVpercentBcGt75
p2740
F0
sVnumBcSats
p2741
I5
sVopenAcc
p2742
I7
sVnumAcctsEver120Ppd
p2743
I0
sVempTitle
p2744
VReleif Counselor
p2745
sVpurpose
p2746
Vmajor_purchase
p2747
sVbcOpenToBuy
p2748
I7688
sVnumTl120dpd2m
p2749
I0
sVtaxLiens
p2750
I0
sVmthsSinceLastRecord
p2751
I49
sVtotalBalExMort
p2752
I54412
sVmemberId
p2753
I95179862
sVavgCurBal
p2754
I9069
sVtotalCuTl
p2755
I0
sVmoSinRcntTl
p2756
I2
sVmthsSinceLastMajorDerog
p2757
NsVtotalIlHighCreditLimit
p2758
I52750
sVintRate
p2759
F14.49
sVchargeoffWithin12Mths
p2760
I0
sa(dp2761
VopenRv24m
p2762
I3
sVaccOpenPast24Mths
p2763
I5
sVmthsSinceLastDelinq
p2764
I51
sVdtiJoint
p2765
NsVinqFi
p2766
I4
sVnumSats
p2767
I7
sVmthsSinceRecentBc
p2768
I3
sVdesc
p2769
NsVbcUtil
p2770
F88.799999999999997
sVtotCollAmt
p2771
I129
sVreviewStatus
p2772
VAPPROVED
p2773
sVisIncV
p2774
VNOT_VERIFIED
p2775
sVnumTlOpPast12m
p2776
I3
sVtotalRevHiLim
p2777
I15000
sVopenAcc6m
p2778
I1
sVterm
p2779
I60
sViLUtil
p2780
F62.299999999999997
sVinstallment
p2781
F452.92000000000002
sVmthsSinceRecentRevolDelinq
p2782
NsVmaxBalBc
p2783
F9226
sVrevolBal
p2784
F12834
sVilsExpD
p2785
V2016-09-07T18:00:00.000-07:00
p2786
sVpubRec
p2787
I0
sVdelinq2Yrs
p2788
I0
sVinqLast6Mths
p2789
I0
sVisIncVJoint
p2790
NsVloanAmount
p2791
F20000
sVopenIl24m
p2792
I0
sVnumOpRevTl
p2793
I4
sVficoRangeHigh
p2794
I669
sVpubRecBankruptcies
p2795
I0
sVmthsSinceRcntIl
p2796
I26
sVnumActvRevTl
p2797
I4
sVficoRangeLow
p2798
I665
sVacceptD
p2799
V2016-09-07T12:07:19.000-07:00
p2800
sVinqLast12m
p2801
I6
sVmthsSinceRecentBcDlq
p2802
NsVrevolUtil
p2803
F85.599999999999994
sVnumIlTl
p2804
I4
sVnumRevTlBalGt0
p2805
I4
sVapplicationType
p2806
VINDIVIDUAL
p2807
sVnumTl90gDpd24m
p2808
I0
sVexpDefaultRate
p2809
F4.6500000000000004
sVcreditPullD
p2810
V2016-09-01T08:01:23.000-07:00
p2811
sVinitialListStatus
p2812
VF
sVmoSinOldIlAcct
p2813
I142
sVgrade
p2814
VC
sVnumBcTl
p2815
I4
sVinvestorCount
p2816
NsVopenRv12m
p2817
I1
sVtotHiCredLim
p2818
I300742
sVreviewStatusD
p2819
V2016-09-07T12:10:26.000-07:00
p2820
sVdelinqAmnt
p2821
F0
sVmoSinOldRevTlOp
p2822
I126
sVnumRevAccts
p2823
I7
sVsubGrade
p2824
VC1
p2825
sVopenIl12m
p2826
I0
sVtotalAcc
p2827
I14
sVmortAcc
p2828
I3
sVmthsSinceRecentInq
p2829
I6
sVannualIncJoint
p2830
NsVhomeOwnership
p2831
VMORTGAGE
p2832
sVmoSinRcntRevTlOp
p2833
I3
sVallUtil
p2834
F66.799999999999997
sVtotCurBal
p2835
I273634
sVearliestCrLine
p2836
V2004-10-31T16:00:00.000-08:00
p2837
sVopenIl6m
p2838
I2
sVcollections12MthsExMed
p2839
I0
sVexpD
p2840
V2016-10-07T18:00:00.000-07:00
p2841
sVdti
p2842
F15.9
sVnumActvBcTl
p2843
I3
sVannualInc
p2844
F110000
sVlistD
p2845
V2016-09-07T18:00:00.000-07:00
p2846
sVfundedAmount
p2847
F15700
sVempLength
p2848
I120
sVpctTlNvrDlq
p2849
I85
sVtotalBcLimit
p2850
I13500
sVaccNowDelinq
p2851
I0
sVaddrState
p2852
VCO
p2853
sVid
p2854
I88874773
sVnumTl30dpd
p2855
I0
sVserviceFeeRate
p2856
F0.57999999999999996
sVaddrZip
p2857
V804xx
p2858
sVtotalBalIl
p2859
F39064
sVpercentBcGt75
p2860
F100
sVnumBcSats
p2861
I3
sVopenAcc
p2862
I7
sVnumAcctsEver120Ppd
p2863
I1
sVempTitle
p2864
VAccounts Manager
p2865
sVpurpose
p2866
Vdebt_consolidation
p2867
sVbcOpenToBuy
p2868
I1506
sVnumTl120dpd2m
p2869
I0
sVtaxLiens
p2870
I0
sVmthsSinceLastRecord
p2871
NsVtotalBalExMort
p2872
I51898
sVmemberId
p2873
I95217595
sVavgCurBal
p2874
I39091
sVtotalCuTl
p2875
I2
sVmoSinRcntTl
p2876
I3
sVmthsSinceLastMajorDerog
p2877
I51
sVtotalIlHighCreditLimit
p2878
I62742
sVintRate
p2879
F12.789999999999999
sVchargeoffWithin12Mths
p2880
I0
sa(dp2881
VopenRv24m
p2882
I3
sVaccOpenPast24Mths
p2883
I5
sVmthsSinceLastDelinq
p2884
I12
sVdtiJoint
p2885
NsVinqFi
p2886
I0
sVnumSats
p2887
I9
sVmthsSinceRecentBc
p2888
I1
sVdesc
p2889
NsVbcUtil
p2890
F49
sVtotCollAmt
p2891
I0
sVreviewStatus
p2892
VAPPROVED
p2893
sVisIncV
p2894
VSOURCE_VERIFIED
p2895
sVnumTlOpPast12m
p2896
I1
sVtotalRevHiLim
p2897
I33200
sVopenAcc6m
p2898
I1
sVterm
p2899
I36
sViLUtil
p2900
F96.900000000000006
sVinstallment
p2901
F1204.5699999999999
sVmthsSinceRecentRevolDelinq
p2902
I12
sVmaxBalBc
p2903
F5824
sVrevolBal
p2904
F15976
sVilsExpD
p2905
V2016-09-07T18:00:00.000-07:00
p2906
sVpubRec
p2907
I0
sVdelinq2Yrs
p2908
I1
sVinqLast6Mths
p2909
I0
sVisIncVJoint
p2910
NsVloanAmount
p2911
F35000
sVopenIl24m
p2912
I1
sVnumOpRevTl
p2913
I6
sVficoRangeHigh
p2914
I699
sVpubRecBankruptcies
p2915
I0
sVmthsSinceRcntIl
p2916
I18
sVnumActvRevTl
p2917
I5
sVficoRangeLow
p2918
I695
sVacceptD
p2919
V2016-09-05T18:06:15.000-07:00
p2920
sVinqLast12m
p2921
I1
sVmthsSinceRecentBcDlq
p2922
I12
sVrevolUtil
p2923
F48.100000000000001
sVnumIlTl
p2924
I11
sVnumRevTlBalGt0
p2925
I5
sVapplicationType
p2926
VINDIVIDUAL
p2927
sVnumTl90gDpd24m
p2928
I0
sVexpDefaultRate
p2929
F6.7400000000000002
sVcreditPullD
p2930
V2016-09-05T17:28:48.000-07:00
p2931
sVinitialListStatus
p2932
VF
sVmoSinOldIlAcct
p2933
I190
sVgrade
p2934
VC
sVnumBcTl
p2935
I6
sVinvestorCount
p2936
NsVopenRv12m
p2937
I1
sVtotHiCredLim
p2938
I89561
sVreviewStatusD
p2939
V2016-09-07T09:44:08.000-07:00
p2940
sVdelinqAmnt
p2941
F0
sVmoSinOldRevTlOp
p2942
I165
sVnumRevAccts
p2943
I10
sVsubGrade
p2944
VC4
p2945
sVopenIl12m
p2946
I0
sVtotalAcc
p2947
I22
sVmortAcc
p2948
I1
sVmthsSinceRecentInq
p2949
I2
sVannualIncJoint
p2950
NsVhomeOwnership
p2951
VRENT
p2952
sVmoSinRcntRevTlOp
p2953
I1
sVallUtil
p2954
F64.299999999999997
sVtotCurBal
p2955
I69393
sVearliestCrLine
p2956
V2000-11-05T16:00:00.000-08:00
p2957
sVopenIl6m
p2958
I2
sVcollections12MthsExMed
p2959
I0
sVexpD
p2960
V2016-10-07T18:00:00.000-07:00
p2961
sVdti
p2962
F8.7599999999999998
sVnumActvBcTl
p2963
I4
sVannualInc
p2964
F80000
sVlistD
p2965
V2016-09-07T18:00:00.000-07:00
p2966
sVfundedAmount
p2967
F19325
sVempLength
p2968
I108
sVpctTlNvrDlq
p2969
I95
sVtotalBcLimit
p2970
I31700
sVaccNowDelinq
p2971
I0
sVaddrState
p2972
VMD
p2973
sVid
p2974
I88997835
sVnumTl30dpd
p2975
I0
sVserviceFeeRate
p2976
F0.95999999999999996
sVaddrZip
p2977
V210xx
p2978
sVtotalBalIl
p2979
F16044
sVpercentBcGt75
p2980
F0
sVnumBcSats
p2981
I5
sVopenAcc
p2982
I9
sVnumAcctsEver120Ppd
p2983
I0
sVempTitle
p2984
VAgent
p2985
sVpurpose
p2986
Vdebt_consolidation
p2987
sVbcOpenToBuy
p2988
I16156
sVnumTl120dpd2m
p2989
I0
sVtaxLiens
p2990
I0
sVmthsSinceLastRecord
p2991
NsVtotalBalExMort
p2992
I32020
sVmemberId
p2993
I95340751
sVavgCurBal
p2994
I7710
sVtotalCuTl
p2995
I9
sVmoSinRcntTl
p2996
I1
sVmthsSinceLastMajorDerog
p2997
NsVtotalIlHighCreditLimit
p2998
I16561
sVintRate
p2999
F14.49
sVchargeoffWithin12Mths
p3000
I0
sa(dp3001
VopenRv24m
p3002
I4
sVaccOpenPast24Mths
p3003
I5
sVmthsSinceLastDelinq
p3004
I19
sVdtiJoint
p3005
NsVinqFi
p3006
I0
sVnumSats
p3007
I12
sVmthsSinceRecentBc
p3008
I3
sVdesc
p3009
NsVbcUtil
p3010
F68.700000000000003
sVtotCollAmt
p3011
I0
sVreviewStatus
p3012
VAPPROVED
p3013
sVisIncV
p3014
VSOURCE_VERIFIED
p3015
sVnumTlOpPast12m
p3016
I2
sVtotalRevHiLim
p3017
I18400
sVopenAcc6m
p3018
I1
sVterm
p3019
I36
sViLUtil
p3020
F69
sVinstallment
p3021
F705.46000000000004
sVmthsSinceRecentRevolDelinq
p3022
NsVmaxBalBc
p3023
F4941
sVrevolBal
p3024
F10228
sVilsExpD
p3025
V2016-09-07T18:00:00.000-07:00
p3026
sVpubRec
p3027
I3
sVdelinq2Yrs
p3028
I1
sVinqLast6Mths
p3029
I0
sVisIncVJoint
p3030
NsVloanAmount
p3031
F21000
sVopenIl24m
p3032
I1
sVnumOpRevTl
p3033
I11
sVficoRangeHigh
p3034
I669
sVpubRecBankruptcies
p3035
I1
sVmthsSinceRcntIl
p3036
I15
sVnumActvRevTl
p3037
I8
sVficoRangeLow
p3038
I665
sVacceptD
p3039
V2016-09-02T09:06:26.000-07:00
p3040
sVinqLast12m
p3041
I1
sVmthsSinceRecentBcDlq
p3042
NsVrevolUtil
p3043
F55.600000000000001
sVnumIlTl
p3044
I5
sVnumRevTlBalGt0
p3045
I8
sVapplicationType
p3046
VINDIVIDUAL
p3047
sVnumTl90gDpd24m
p3048
I1
sVexpDefaultRate
p3049
F5.4699999999999998
sVcreditPullD
p3050
V2016-09-01T11:03:40.000-07:00
p3051
sVinitialListStatus
p3052
VF
sVmoSinOldIlAcct
p3053
I47
sVgrade
p3054
VC
sVnumBcTl
p3055
I9
sVinvestorCount
p3056
NsVopenRv12m
p3057
I2
sVtotHiCredLim
p3058
I26537
sVreviewStatusD
p3059
V2016-09-07T09:14:53.000-07:00
p3060
sVdelinqAmnt
p3061
F0
sVmoSinOldRevTlOp
p3062
I76
sVnumRevAccts
p3063
I13
sVsubGrade
p3064
VC1
p3065
sVopenIl12m
p3066
I0
sVtotalAcc
p3067
I19
sVmortAcc
p3068
I0
sVmthsSinceRecentInq
p3069
I9
sVannualIncJoint
p3070
NsVhomeOwnership
p3071
VRENT
p3072
sVmoSinRcntRevTlOp
p3073
I3
sVallUtil
p3074
F59.700000000000003
sVtotCurBal
p3075
I15841
sVearliestCrLine
p3076
V2010-04-30T17:00:00.000-07:00
p3077
sVopenIl6m
p3078
I0
sVcollections12MthsExMed
p3079
I0
sVexpD
p3080
V2016-10-07T18:00:00.000-07:00
p3081
sVdti
p3082
F9.2599999999999998
sVnumActvBcTl
p3083
I6
sVannualInc
p3084
F70000
sVlistD
p3085
V2016-09-07T18:00:00.000-07:00
p3086
sVfundedAmount
p3087
F1150
sVempLength
p3088
I12
sVpctTlNvrDlq
p3089
I94
sVtotalBcLimit
p3090
I14600
sVaccNowDelinq
p3091
I0
sVaddrState
p3092
VNY
p3093
sVid
p3094
I88885200
sVnumTl30dpd
p3095
I0
sVserviceFeeRate
p3096
F0.95999999999999996
sVaddrZip
p3097
V113xx
p3098
sVtotalBalIl
p3099
F5613
sVpercentBcGt75
p3100
F28.600000000000001
sVnumBcSats
p3101
I7
sVopenAcc
p3102
I12
sVnumAcctsEver120Ppd
p3103
I1
sVempTitle
p3104
VFire safety director
p3105
sVpurpose
p3106
Vdebt_consolidation
p3107
sVbcOpenToBuy
p3108
I4573
sVnumTl120dpd2m
p3109
I0
sVtaxLiens
p3110
I2
sVmthsSinceLastRecord
p3111
I56
sVtotalBalExMort
p3112
I15841
sVmemberId
p3113
I95228039
sVavgCurBal
p3114
I1320
sVtotalCuTl
p3115
I4
sVmoSinRcntTl
p3116
I3
sVmthsSinceLastMajorDerog
p3117
I19
sVtotalIlHighCreditLimit
p3118
I8137
sVintRate
p3119
F12.789999999999999
sVchargeoffWithin12Mths
p3120
I0
sasVasOfDate
p3121
V2016-09-07T18:57:28.913-07:00
p3122
s.